(lp0
(S'2c:b0:5d:82:f4:1a'
p1
S'69.86.151.141'
p2
S'74.63.50.41'
p3
S'2012-10-03 15:02:19'
p4
F1017.0
tp5
a(S'2c:b0:5d:82:f4:1a'
p6
S'69.86.151.141'
p7
S'74.63.50.25'
p8
S'2012-10-03 21:12:36'
p9
F1017.0
tp10
a(S'2c:b0:5d:82:f4:1a'
p11
S'69.86.151.141'
p12
S'74.63.50.12'
p13
S'2012-10-04 03:22:50'
p14
F1013.0
tp15
a(S'2c:b0:5d:82:f4:1a'
p16
S'69.86.151.141'
p17
S'74.63.50.12'
p18
S'2012-10-04 15:02:20'
p19
F1017.0
tp20
a(S'2c:b0:5d:82:f4:1a'
p21
S'69.86.151.141'
p22
S'74.63.50.25'
p23
S'2012-10-04 21:12:37'
p24
F1018.0
tp25
a(S'2c:b0:5d:82:f4:1a'
p26
S'69.86.151.141'
p27
S'74.63.50.12'
p28
S'2012-10-05 03:22:48'
p29
F1006.0
tp30
a(S'2c:b0:5d:82:f4:1a'
p31
S'69.86.151.141'
p32
S'74.63.50.41'
p33
S'2012-10-05 15:01:22'
p34
F1017.0
tp35
a(S'2c:b0:5d:82:f4:1a'
p36
S'69.86.151.141'
p37
S'74.63.50.25'
p38
S'2012-10-05 21:11:47'
p39
F1018.0
tp40
a(S'2c:b0:5d:82:f4:1a'
p41
S'69.86.151.141'
p42
S'74.63.50.25'
p43
S'2012-10-06 03:21:50'
p44
F976.0
tp45
a(S'2c:b0:5d:82:f4:1a'
p46
S'69.86.151.141'
p47
S'74.63.50.12'
p48
S'2012-10-06 15:01:32'
p49
F1012.0
tp50
a(S'2c:b0:5d:82:f4:1a'
p51
S'69.86.151.141'
p52
S'74.63.50.12'
p53
S'2012-10-06 21:11:38'
p54
F1004.0
tp55
a(S'2c:b0:5d:82:f4:1a'
p56
S'69.86.151.141'
p57
S'74.63.50.25'
p58
S'2012-10-07 03:22:00'
p59
F1016.0
tp60
a(S'2c:b0:5d:82:f4:1a'
p61
S'69.86.151.141'
p62
S'74.63.50.12'
p63
S'2012-10-07 15:01:20'
p64
F1006.0
tp65
a(S'2c:b0:5d:82:f4:1a'
p66
S'69.86.151.141'
p67
S'74.63.50.25'
p68
S'2012-10-07 21:11:36'
p69
F999.0
tp70
a(S'2c:b0:5d:82:f4:1a'
p71
S'69.86.151.141'
p72
S'74.63.50.25'
p73
S'2012-10-08 03:21:49'
p74
F1015.0
tp75
a(S'2c:b0:5d:82:f4:1a'
p76
S'69.86.151.141'
p77
S'74.63.50.25'
p78
S'2012-10-08 15:01:28'
p79
F1015.0
tp80
a(S'2c:b0:5d:82:f4:1a'
p81
S'69.86.151.141'
p82
S'74.63.50.25'
p83
S'2012-10-09 00:11:46'
p84
F990.0
tp85
a(S'2c:b0:5d:82:f4:1a'
p86
S'69.86.151.141'
p87
S'74.63.50.41'
p88
S'2012-10-09 06:21:55'
p89
F1017.0
tp90
a(S'2c:b0:5d:82:f4:1a'
p91
S'69.86.151.141'
p92
S'74.63.50.12'
p93
S'2012-10-09 18:01:30'
p94
F1017.0
tp95
a(S'2c:b0:5d:82:f4:1a'
p96
S'69.86.151.141'
p97
S'74.63.50.25'
p98
S'2012-10-10 00:11:51'
p99
F1016.0
tp100
a(S'2c:b0:5d:82:f4:1a'
p101
S'69.86.151.141'
p102
S'74.63.50.25'
p103
S'2012-10-10 06:22:02'
p104
F1017.0
tp105
a(S'2c:b0:5d:82:f4:1a'
p106
S'69.86.151.141'
p107
S'74.63.50.41'
p108
S'2012-10-11 00:11:45'
p109
F1017.0
tp110
a(S'2c:b0:5d:82:f4:1a'
p111
S'69.86.151.141'
p112
S'74.63.50.41'
p113
S'2012-10-11 06:21:58'
p114
F1011.0
tp115
a(S'2c:b0:5d:82:f4:1a'
p116
S'69.86.151.141'
p117
S'74.63.50.12'
p118
S'2012-10-11 18:01:27'
p119
F1017.0
tp120
a(S'2c:b0:5d:82:f4:1a'
p121
S'69.86.151.141'
p122
S'74.63.50.25'
p123
S'2012-10-12 00:11:46'
p124
F1017.0
tp125
a(S'2c:b0:5d:82:f4:1a'
p126
S'69.86.151.141'
p127
S'74.63.50.12'
p128
S'2012-10-12 06:22:02'
p129
F1017.0
tp130
a(S'2c:b0:5d:82:f4:1a'
p131
S'69.86.151.109'
p132
S'74.63.50.25'
p133
S'2012-10-14 09:46:27'
p134
F1017.0
tp135
a(S'2c:b0:5d:82:f4:1a'
p136
S'69.86.151.109'
p137
S'74.63.50.41'
p138
S'2012-10-14 15:56:50'
p139
F1016.0
tp140
a(S'2c:b0:5d:82:f4:1a'
p141
S'69.86.151.109'
p142
S'74.63.50.12'
p143
S'2012-10-14 22:07:01'
p144
F1015.0
tp145
a.