(lp0
(S'2c:b0:5d:87:3b:30'
p1
S'68.34.206.216'
p2
S'216.156.197.159'
p3
S'2012-10-02 11:39:23'
p4
F4281.0
tp5
a(S'2c:b0:5d:87:3b:30'
p6
S'68.34.206.216'
p7
S'216.156.197.172'
p8
S'2012-10-02 21:48:39'
p9
F4276.0
tp10
a(S'2c:b0:5d:87:3b:30'
p11
S'68.34.206.216'
p12
S'216.156.197.172'
p13
S'2012-10-03 08:58:48'
p14
F4275.0
tp15
a(S'2c:b0:5d:87:3b:30'
p16
S'68.34.206.216'
p17
S'216.156.197.159'
p18
S'2012-10-03 20:38:25'
p19
F4274.0
tp20
a(S'2c:b0:5d:87:3b:30'
p21
S'68.34.206.216'
p22
S'216.156.197.146'
p23
S'2012-10-04 02:48:43'
p24
F4292.0
tp25
a(S'2c:b0:5d:87:3b:30'
p26
S'68.34.206.216'
p27
S'216.156.197.146'
p28
S'2012-10-04 08:58:54'
p29
F4278.0
tp30
a(S'2c:b0:5d:87:3b:30'
p31
S'68.34.206.216'
p32
S'216.156.197.172'
p33
S'2012-10-04 20:38:27'
p34
F4277.0
tp35
a(S'2c:b0:5d:87:3b:30'
p36
S'68.34.206.216'
p37
S'216.156.197.159'
p38
S'2012-10-05 05:48:41'
p39
F4276.0
tp40
a(S'2c:b0:5d:87:3b:30'
p41
S'68.34.206.216'
p42
S'216.156.197.146'
p43
S'2012-10-05 11:58:54'
p44
F4269.0
tp45
a(S'2c:b0:5d:87:3b:30'
p46
S'68.34.206.216'
p47
S'216.156.197.172'
p48
S'2012-10-06 03:58:27'
p49
F4273.0
tp50
a(S'2c:b0:5d:87:3b:30'
p51
S'68.34.206.216'
p52
S'216.156.197.172'
p53
S'2012-10-06 12:08:42'
p54
F4265.0
tp55
a(S'2c:b0:5d:87:3b:30'
p56
S'68.34.206.216'
p57
S'216.156.197.146'
p58
S'2012-10-06 18:18:54'
p59
F4291.0
tp60
a(S'2c:b0:5d:87:3b:30'
p61
S'68.34.206.216'
p62
S'216.156.197.172'
p63
S'2012-10-07 05:58:25'
p64
F4256.0
tp65
a(S'2c:b0:5d:87:3b:30'
p66
S'68.34.206.216'
p67
S'216.156.197.172'
p68
S'2012-10-07 12:08:43'
p69
F4269.0
tp70
a(S'2c:b0:5d:87:3b:30'
p71
S'68.34.206.216'
p72
S'216.156.197.172'
p73
S'2012-10-07 18:18:55'
p74
F4269.0
tp75
a(S'2c:b0:5d:87:3b:30'
p76
S'68.34.206.216'
p77
S'216.156.197.159'
p78
S'2012-10-08 07:18:31'
p79
F4241.0
tp80
a(S'2c:b0:5d:87:3b:30'
p81
S'68.34.206.216'
p82
S'216.156.197.146'
p83
S'2012-10-08 13:28:43'
p84
F4268.0
tp85
a(S'2c:b0:5d:87:3b:30'
p86
S'68.34.206.216'
p87
S'216.156.197.159'
p88
S'2012-10-08 20:27:53'
p89
F4271.0
tp90
a(S'2c:b0:5d:87:3b:30'
p91
S'68.34.206.216'
p92
S'216.156.197.159'
p93
S'2012-10-09 12:07:25'
p94
F4285.0
tp95
a(S'2c:b0:5d:87:3b:30'
p96
S'68.34.206.216'
p97
S'216.156.197.146'
p98
S'2012-10-09 18:17:42'
p99
F4284.0
tp100
a(S'2c:b0:5d:87:3b:30'
p101
S'68.34.206.216'
p102
S'216.156.197.159'
p103
S'2012-10-10 00:27:53'
p104
F4267.0
tp105
a(S'2c:b0:5d:87:3b:30'
p106
S'68.34.206.216'
p107
S'216.156.197.146'
p108
S'2012-10-11 00:27:54'
p109
F4297.0
tp110
a(S'2c:b0:5d:87:3b:30'
p111
S'68.34.206.216'
p112
S'216.156.197.146'
p113
S'2012-10-11 12:07:25'
p114
F4277.0
tp115
a(S'2c:b0:5d:87:3b:30'
p116
S'68.34.206.216'
p117
S'216.156.197.159'
p118
S'2012-10-12 01:27:58'
p119
F4277.0
tp120
a(S'2c:b0:5d:87:3b:30'
p121
S'68.34.206.216'
p122
S'216.156.197.146'
p123
S'2012-10-12 13:07:31'
p124
F4286.0
tp125
a(S'2c:b0:5d:87:3b:30'
p126
S'68.34.206.216'
p127
S'216.156.197.159'
p128
S'2012-10-12 19:17:43'
p129
F4280.0
tp130
a(S'2c:b0:5d:87:3b:30'
p131
S'68.34.206.216'
p132
S'216.156.197.159'
p133
S'2012-10-13 01:27:55'
p134
F4291.0
tp135
a(S'2c:b0:5d:87:3b:30'
p136
S'68.34.206.216'
p137
S'216.156.197.146'
p138
S'2012-10-14 00:04:25'
p139
F4245.0
tp140
a(S'2c:b0:5d:87:3b:30'
p141
S'68.34.206.216'
p142
S'216.156.197.159'
p143
S'2012-10-14 10:50:25'
p144
F4291.0
tp145
a(S'2c:b0:5d:87:3b:30'
p146
S'68.34.206.216'
p147
S'216.156.197.172'
p148
S'2012-10-14 17:50:44'
p149
F4281.0
tp150
a.