(lp0
(S'2c:b0:5d:87:3b:24'
p1
S'184.77.211.163'
p2
S'64.9.225.161'
p3
S'2012-10-03 06:26:33'
p4
F941.0
tp5
a(S'2c:b0:5d:87:3b:24'
p6
S'184.77.211.163'
p7
S'64.9.225.140'
p8
S'2012-10-04 06:15:34'
p9
F710.0
tp10
a(S'2c:b0:5d:87:3b:24'
p11
S'184.77.211.163'
p12
S'64.9.225.161'
p13
S'2012-10-04 18:36:05'
p14
F729.0
tp15
a(S'2c:b0:5d:87:3b:24'
p16
S'184.77.211.163'
p17
S'64.9.225.170'
p18
S'2012-10-05 06:15:33'
p19
F321.0
tp20
a(S'2c:b0:5d:87:3b:24'
p21
S'184.77.211.163'
p22
S'64.9.225.140'
p23
S'2012-10-05 18:36:03'
p24
F886.0
tp25
a(S'2c:b0:5d:87:3b:24'
p26
S'184.77.211.163'
p27
S'64.9.225.170'
p28
S'2012-10-06 18:36:03'
p29
F748.0
tp30
a(S'2c:b0:5d:87:3b:24'
p31
S'184.77.211.163'
p32
S'64.9.225.140'
p33
S'2012-10-07 12:24:51'
p34
F668.0
tp35
a(S'2c:b0:5d:87:3b:24'
p36
S'184.77.211.163'
p37
S'64.9.225.161'
p38
S'2012-10-07 18:35:05'
p39
F716.0
tp40
a(S'2c:b0:5d:87:3b:24'
p41
S'184.77.211.163'
p42
S'64.9.225.170'
p43
S'2012-10-08 18:35:03'
p44
F609.0
tp45
a(S'2c:b0:5d:87:3b:24'
p46
S'184.77.211.163'
p47
S'64.9.225.140'
p48
S'2012-10-09 06:14:35'
p49
F587.0
tp50
a(S'2c:b0:5d:87:3b:24'
p51
S'184.77.211.163'
p52
S'64.9.225.170'
p53
S'2012-10-09 12:24:52'
p54
F647.0
tp55
a(S'2c:b0:5d:87:3b:24'
p56
S'184.77.211.163'
p57
S'64.9.225.161'
p58
S'2012-10-10 06:14:33'
p59
F629.0
tp60
a(S'2c:b0:5d:87:3b:24'
p61
S'184.77.211.163'
p62
S'64.9.225.140'
p63
S'2012-10-11 06:23:35'
p64
F541.0
tp65
a(S'2c:b0:5d:87:3b:24'
p66
S'184.77.211.163'
p67
S'64.9.225.140'
p68
S'2012-10-11 12:33:39'
p69
F321.0
tp70
a(S'2c:b0:5d:87:3b:24'
p71
S'184.77.211.163'
p72
S'64.9.225.161'
p73
S'2012-10-11 18:43:51'
p74
F419.0
tp75
a(S'2c:b0:5d:87:3b:24'
p76
S'184.77.211.163'
p77
S'64.9.225.140'
p78
S'2012-10-12 06:23:35'
p79
F226.0
tp80
a(S'2c:b0:5d:87:3b:24'
p81
S'184.77.211.163'
p82
S'64.9.225.161'
p83
S'2012-10-12 12:33:52'
p84
F537.0
tp85
a(S'2c:b0:5d:87:3b:24'
p86
S'184.77.211.163'
p87
S'64.9.225.140'
p88
S'2012-10-12 18:43:42'
p89
F662.0
tp90
a(S'2c:b0:5d:87:3b:24'
p91
S'184.77.211.163'
p92
S'64.9.225.140'
p93
S'2012-10-13 06:23:35'
p94
F834.0
tp95
a(S'2c:b0:5d:87:3b:24'
p96
S'184.77.211.163'
p97
S'64.9.225.161'
p98
S'2012-10-14 12:53:41'
p99
F748.0
tp100
a(S'2c:b0:5d:87:3b:24'
p101
S'184.77.211.163'
p102
S'64.9.225.161'
p103
S'2012-10-14 19:04:04'
p104
F673.0
tp105
a.