(lp0
(S'2c:b0:5d:87:37:88'
p1
S'4.71.251.166'
p2
S'99.185.58.166'
p3
S'2012-10-02 01:16:18'
p4
F17471.0
tp5
a(S'2c:b0:5d:87:37:88'
p6
S'4.71.251.153'
p7
S'99.185.58.166'
p8
S'2012-10-02 12:55:46'
p9
F17625.0
tp10
a(S'2c:b0:5d:87:37:88'
p11
S'4.71.251.153'
p12
S'99.185.58.166'
p13
S'2012-10-02 19:06:04'
p14
F17438.0
tp15
a(S'2c:b0:5d:87:37:88'
p16
S'4.71.251.153'
p17
S'99.185.58.166'
p18
S'2012-10-03 01:16:29'
p19
F16656.0
tp20
a(S'2c:b0:5d:87:37:88'
p21
S'4.71.251.166'
p22
S'99.185.58.166'
p23
S'2012-10-03 12:55:46'
p24
F17517.0
tp25
a(S'2c:b0:5d:87:37:88'
p26
S'4.71.251.153'
p27
S'99.185.58.166'
p28
S'2012-10-03 19:06:15'
p29
F17414.0
tp30
a(S'2c:b0:5d:87:37:88'
p31
S'4.71.251.153'
p32
S'99.185.58.166'
p33
S'2012-10-04 01:16:22'
p34
F17133.0
tp35
a(S'2c:b0:5d:87:37:88'
p36
S'4.71.251.153'
p37
S'99.185.58.166'
p38
S'2012-10-04 13:24:46'
p39
F17389.0
tp40
a(S'2c:b0:5d:87:37:88'
p41
S'4.71.251.153'
p42
S'99.185.58.166'
p43
S'2012-10-04 19:35:05'
p44
F17497.0
tp45
a(S'2c:b0:5d:87:37:88'
p46
S'4.71.251.153'
p47
S'99.185.58.166'
p48
S'2012-10-05 01:45:30'
p49
F17312.0
tp50
a(S'2c:b0:5d:87:37:88'
p51
S'4.71.251.166'
p52
S'99.185.58.166'
p53
S'2012-10-05 13:24:50'
p54
F17588.0
tp55
a(S'2c:b0:5d:87:37:88'
p56
S'4.71.251.153'
p57
S'99.185.58.166'
p58
S'2012-10-05 19:34:57'
p59
F17667.0
tp60
a(S'2c:b0:5d:87:37:88'
p61
S'4.71.251.153'
p62
S'99.185.58.166'
p63
S'2012-10-06 01:45:11'
p64
F17573.0
tp65
a(S'2c:b0:5d:87:37:88'
p66
S'4.71.251.166'
p67
S'99.185.58.166'
p68
S'2012-10-06 13:24:41'
p69
F17281.0
tp70
a(S'2c:b0:5d:87:37:88'
p71
S'4.71.251.153'
p72
S'99.185.58.166'
p73
S'2012-10-06 19:35:12'
p74
F15679.0
tp75
a(S'2c:b0:5d:87:37:88'
p76
S'4.71.251.166'
p77
S'99.185.58.166'
p78
S'2012-10-07 01:45:44'
p79
F15695.0
tp80
a(S'2c:b0:5d:87:37:88'
p81
S'4.71.251.166'
p82
S'99.185.58.166'
p83
S'2012-10-07 14:24:01'
p84
F16402.0
tp85
a(S'2c:b0:5d:87:37:88'
p86
S'4.71.251.166'
p87
S'99.185.58.166'
p88
S'2012-10-07 20:34:30'
p89
F16934.0
tp90
a(S'2c:b0:5d:87:37:88'
p91
S'4.71.251.153'
p92
S'99.185.58.166'
p93
S'2012-10-08 14:23:50'
p94
F17470.0
tp95
a(S'2c:b0:5d:87:37:88'
p96
S'4.71.251.166'
p97
S'99.185.58.166'
p98
S'2012-10-08 20:34:16'
p99
F17476.0
tp100
a(S'2c:b0:5d:87:37:88'
p101
S'4.71.210.204'
p102
S'99.185.58.166'
p103
S'2012-10-09 02:44:34'
p104
F17400.0
tp105
a(S'2c:b0:5d:87:37:88'
p106
S'4.71.210.217'
p107
S'99.185.58.166'
p108
S'2012-10-09 15:23:57'
p109
F17028.0
tp110
a(S'2c:b0:5d:87:37:88'
p111
S'4.71.210.204'
p112
S'99.185.58.166'
p113
S'2012-10-09 22:33:14'
p114
F17038.0
tp115
a(S'2c:b0:5d:87:37:88'
p116
S'4.71.210.217'
p117
S'99.185.58.166'
p118
S'2012-10-10 04:43:17'
p119
F17489.0
tp120
a(S'2c:b0:5d:87:37:88'
p121
S'4.71.210.204'
p122
S'99.185.58.166'
p123
S'2012-10-10 22:33:20'
p124
F15723.0
tp125
a(S'2c:b0:5d:87:37:88'
p126
S'4.71.210.217'
p127
S'99.185.58.166'
p128
S'2012-10-11 04:43:31'
p129
F17451.0
tp130
a(S'2c:b0:5d:87:37:88'
p131
S'4.71.210.204'
p132
S'99.185.58.166'
p133
S'2012-10-11 16:22:46'
p134
F17494.0
tp135
a(S'2c:b0:5d:87:37:88'
p136
S'4.71.210.204'
p137
S'99.185.58.166'
p138
S'2012-10-11 22:33:06'
p139
F17220.0
tp140
a(S'2c:b0:5d:87:37:88'
p141
S'4.71.210.204'
p142
S'99.185.58.166'
p143
S'2012-10-12 04:43:23'
p144
F17545.0
tp145
a(S'2c:b0:5d:87:37:88'
p146
S'4.71.210.217'
p147
S'99.185.58.166'
p148
S'2012-10-12 16:32:01'
p149
F16127.0
tp150
a(S'2c:b0:5d:87:37:88'
p151
S'4.71.210.217'
p152
S'99.185.58.166'
p153
S'2012-10-12 22:41:55'
p154
F16262.0
tp155
a(S'2c:b0:5d:87:37:88'
p156
S'4.71.210.204'
p157
S'99.185.58.166'
p158
S'2012-10-13 04:52:20'
p159
F17206.0
tp160
a(S'2c:b0:5d:87:37:88'
p161
S'4.71.210.217'
p162
S'99.185.58.166'
p163
S'2012-10-13 19:32:04'
p164
F16537.0
tp165
a(S'2c:b0:5d:87:37:88'
p166
S'4.71.210.204'
p167
S'99.185.58.166'
p168
S'2012-10-14 01:42:17'
p169
F16963.0
tp170
a(S'2c:b0:5d:87:37:88'
p171
S'4.71.210.204'
p172
S'99.185.58.166'
p173
S'2012-10-14 07:52:26'
p174
F17047.0
tp175
a(S'2c:b0:5d:87:37:88'
p176
S'4.71.210.204'
p177
S'99.185.58.166'
p178
S'2012-10-14 19:32:04'
p179
F15688.0
tp180
a.