(lp0
(S'2c:b0:5d:a0:c2:26'
p1
S'143.215.207.87'
p2
S'143.215.131.173'
p3
S'2012-10-02 11:12:59'
p4
F350736.0
tp5
a(S'2c:b0:5d:a0:c2:26'
p6
S'71.56.92.62'
p7
S'4.71.210.204'
p8
S'2012-10-05 21:54:26'
p9
F6426.0
tp10
a(S'2c:b0:5d:a0:c2:26'
p11
S'71.56.92.62'
p12
S'4.71.210.204'
p13
S'2012-10-06 04:04:43'
p14
F6470.0
tp15
a(S'2c:b0:5d:a0:c2:26'
p16
S'71.56.92.62'
p17
S'4.71.210.217'
p18
S'2012-10-07 12:34:25'
p19
F6472.0
tp20
a(S'2c:b0:5d:a0:c2:26'
p21
S'71.56.92.62'
p22
S'4.71.210.217'
p23
S'2012-10-07 18:44:43'
p24
F6440.0
tp25
a(S'2c:b0:5d:a0:c2:26'
p26
S'71.56.92.62'
p27
S'4.71.210.217'
p28
S'2012-10-08 00:55:00'
p29
F6438.0
tp30
a(S'2c:b0:5d:a0:c2:26'
p31
S'71.56.92.62'
p32
S'4.71.210.217'
p33
S'2012-10-08 12:34:26'
p34
F6454.0
tp35
a(S'2c:b0:5d:a0:c2:26'
p36
S'71.56.92.62'
p37
S'4.71.210.204'
p38
S'2012-10-08 18:44:41'
p39
F6463.0
tp40
a(S'2c:b0:5d:a0:c2:26'
p41
S'71.56.92.62'
p42
S'4.71.210.204'
p43
S'2012-10-09 00:54:54'
p44
F6434.0
tp45
a(S'2c:b0:5d:a0:c2:26'
p46
S'71.56.92.62'
p47
S'4.71.210.204'
p48
S'2012-10-09 12:34:25'
p49
F6445.0
tp50
a(S'2c:b0:5d:a0:c2:26'
p51
S'71.56.92.62'
p52
S'4.71.210.217'
p53
S'2012-10-09 18:44:49'
p54
F6451.0
tp55
a(S'2c:b0:5d:a0:c2:26'
p56
S'71.56.92.62'
p57
S'4.71.210.217'
p58
S'2012-10-10 02:04:52'
p59
F6460.0
tp60
a(S'2c:b0:5d:a0:c2:26'
p61
S'71.56.92.62'
p62
S'4.71.210.217'
p63
S'2012-10-10 13:43:24'
p64
F6452.0
tp65
a(S'2c:b0:5d:a0:c2:26'
p66
S'71.56.92.62'
p67
S'4.71.210.204'
p68
S'2012-10-11 02:03:55'
p69
F6413.0
tp70
a(S'2c:b0:5d:a0:c2:26'
p71
S'71.56.92.62'
p72
S'4.71.210.204'
p73
S'2012-10-11 13:43:24'
p74
F6452.0
tp75
a(S'2c:b0:5d:a0:c2:26'
p76
S'71.56.92.62'
p77
S'4.71.210.217'
p78
S'2012-10-11 19:53:42'
p79
F6477.0
tp80
a(S'2c:b0:5d:a0:c2:26'
p81
S'71.56.92.62'
p82
S'4.71.210.204'
p83
S'2012-10-12 02:03:54'
p84
F6460.0
tp85
a(S'2c:b0:5d:a0:c2:26'
p86
S'71.56.92.62'
p87
S'4.71.210.204'
p88
S'2012-10-12 13:43:26'
p89
F6455.0
tp90
a(S'2c:b0:5d:a0:c2:26'
p91
S'71.56.92.62'
p92
S'4.71.210.204'
p93
S'2012-10-12 19:53:41'
p94
F6454.0
tp95
a(S'2c:b0:5d:a0:c2:26'
p96
S'71.56.92.62'
p97
S'4.71.210.217'
p98
S'2012-10-13 02:03:59'
p99
F6477.0
tp100
a(S'2c:b0:5d:a0:c2:26'
p101
S'71.56.92.62'
p102
S'4.71.210.217'
p103
S'2012-10-13 13:43:27'
p104
F6450.0
tp105
a(S'2c:b0:5d:a0:c2:26'
p106
S'71.56.92.62'
p107
S'4.71.210.204'
p108
S'2012-10-13 22:13:41'
p109
F6485.0
tp110
a(S'2c:b0:5d:a0:c2:26'
p111
S'71.56.92.62'
p112
S'4.71.210.204'
p113
S'2012-10-14 04:23:53'
p114
F6448.0
tp115
a(S'2c:b0:5d:a0:c2:26'
p116
S'71.56.92.62'
p117
S'4.71.210.204'
p118
S'2012-10-14 16:03:31'
p119
F6459.0
tp120
a(S'2c:b0:5d:a0:c2:26'
p121
S'71.56.92.62'
p122
S'4.71.210.204'
p123
S'2012-10-14 22:13:41'
p124
F6421.0
tp125
a.