(lp0
(S'2c:b0:5d:82:f4:1a'
p1
S'74.63.50.41'
p2
S'69.86.151.141'
p3
S'2012-10-03 15:02:19'
p4
F9478.0
tp5
a(S'2c:b0:5d:82:f4:1a'
p6
S'74.63.50.25'
p7
S'69.86.151.141'
p8
S'2012-10-03 21:12:36'
p9
F9436.0
tp10
a(S'2c:b0:5d:82:f4:1a'
p11
S'74.63.50.12'
p12
S'69.86.151.141'
p13
S'2012-10-04 03:22:50'
p14
F9391.0
tp15
a(S'2c:b0:5d:82:f4:1a'
p16
S'74.63.50.12'
p17
S'69.86.151.141'
p18
S'2012-10-04 15:02:20'
p19
F9481.0
tp20
a(S'2c:b0:5d:82:f4:1a'
p21
S'74.63.50.25'
p22
S'69.86.151.141'
p23
S'2012-10-04 21:12:37'
p24
F9474.0
tp25
a(S'2c:b0:5d:82:f4:1a'
p26
S'74.63.50.12'
p27
S'69.86.151.141'
p28
S'2012-10-05 03:22:48'
p29
F9405.0
tp30
a(S'2c:b0:5d:82:f4:1a'
p31
S'74.63.50.41'
p32
S'69.86.151.141'
p33
S'2012-10-05 15:01:22'
p34
F9427.0
tp35
a(S'2c:b0:5d:82:f4:1a'
p36
S'74.63.50.25'
p37
S'69.86.151.141'
p38
S'2012-10-05 21:11:47'
p39
F9463.0
tp40
a(S'2c:b0:5d:82:f4:1a'
p41
S'74.63.50.25'
p42
S'69.86.151.141'
p43
S'2012-10-06 03:21:50'
p44
F9470.0
tp45
a(S'2c:b0:5d:82:f4:1a'
p46
S'74.63.50.12'
p47
S'69.86.151.141'
p48
S'2012-10-06 15:01:32'
p49
F9433.0
tp50
a(S'2c:b0:5d:82:f4:1a'
p51
S'74.63.50.12'
p52
S'69.86.151.141'
p53
S'2012-10-06 21:11:38'
p54
F9354.0
tp55
a(S'2c:b0:5d:82:f4:1a'
p56
S'74.63.50.25'
p57
S'69.86.151.141'
p58
S'2012-10-07 03:22:00'
p59
F9461.0
tp60
a(S'2c:b0:5d:82:f4:1a'
p61
S'74.63.50.12'
p62
S'69.86.151.141'
p63
S'2012-10-07 15:01:20'
p64
F9320.0
tp65
a(S'2c:b0:5d:82:f4:1a'
p66
S'74.63.50.25'
p67
S'69.86.151.141'
p68
S'2012-10-07 21:11:36'
p69
F9440.0
tp70
a(S'2c:b0:5d:82:f4:1a'
p71
S'74.63.50.25'
p72
S'69.86.151.141'
p73
S'2012-10-08 03:21:49'
p74
F9426.0
tp75
a(S'2c:b0:5d:82:f4:1a'
p76
S'74.63.50.25'
p77
S'69.86.151.141'
p78
S'2012-10-08 15:01:28'
p79
F9441.0
tp80
a(S'2c:b0:5d:82:f4:1a'
p81
S'74.63.50.25'
p82
S'69.86.151.141'
p83
S'2012-10-09 00:11:46'
p84
F9207.0
tp85
a(S'2c:b0:5d:82:f4:1a'
p86
S'74.63.50.41'
p87
S'69.86.151.141'
p88
S'2012-10-09 06:21:55'
p89
F9488.0
tp90
a(S'2c:b0:5d:82:f4:1a'
p91
S'74.63.50.12'
p92
S'69.86.151.141'
p93
S'2012-10-09 18:01:30'
p94
F9461.0
tp95
a(S'2c:b0:5d:82:f4:1a'
p96
S'74.63.50.25'
p97
S'69.86.151.141'
p98
S'2012-10-10 00:11:51'
p99
F9415.0
tp100
a(S'2c:b0:5d:82:f4:1a'
p101
S'74.63.50.25'
p102
S'69.86.151.141'
p103
S'2012-10-10 06:22:02'
p104
F9438.0
tp105
a(S'2c:b0:5d:82:f4:1a'
p106
S'74.63.50.41'
p107
S'69.86.151.141'
p108
S'2012-10-11 00:11:45'
p109
F9482.0
tp110
a(S'2c:b0:5d:82:f4:1a'
p111
S'74.63.50.41'
p112
S'69.86.151.141'
p113
S'2012-10-11 06:21:58'
p114
F9575.0
tp115
a(S'2c:b0:5d:82:f4:1a'
p116
S'74.63.50.12'
p117
S'69.86.151.141'
p118
S'2012-10-11 18:01:27'
p119
F9479.0
tp120
a(S'2c:b0:5d:82:f4:1a'
p121
S'74.63.50.25'
p122
S'69.86.151.141'
p123
S'2012-10-12 00:11:46'
p124
F9417.0
tp125
a(S'2c:b0:5d:82:f4:1a'
p126
S'74.63.50.12'
p127
S'69.86.151.141'
p128
S'2012-10-12 06:22:02'
p129
F9463.0
tp130
a(S'2c:b0:5d:82:f4:1a'
p131
S'74.63.50.25'
p132
S'69.86.151.109'
p133
S'2012-10-14 09:46:27'
p134
F9453.0
tp135
a(S'2c:b0:5d:82:f4:1a'
p136
S'74.63.50.41'
p137
S'69.86.151.109'
p138
S'2012-10-14 15:56:50'
p139
F9451.0
tp140
a(S'2c:b0:5d:82:f4:1a'
p141
S'74.63.50.12'
p142
S'69.86.151.109'
p143
S'2012-10-14 22:07:01'
p144
F9430.0
tp145
a.