(lp0
(S'4c:60:de:d0:f5:77'
p1
S'38.106.70.153'
p2
S'24.184.48.99'
p3
S'2012-10-02 14:30:22'
p4
F21885.0
tp5
a(S'4c:60:de:d0:f5:77'
p6
S'38.106.70.153'
p7
S'24.184.48.99'
p8
S'2012-10-03 02:40:37'
p9
F21450.0
tp10
a(S'4c:60:de:d0:f5:77'
p11
S'38.106.70.165'
p12
S'24.184.48.99'
p13
S'2012-10-03 12:50:49'
p14
F21908.0
tp15
a(S'4c:60:de:d0:f5:77'
p16
S'38.106.70.143'
p17
S'24.184.48.99'
p18
S'2012-10-04 00:30:22'
p19
F21868.0
tp20
a(S'4c:60:de:d0:f5:77'
p21
S'38.106.70.143'
p22
S'24.184.48.99'
p23
S'2012-10-04 06:40:42'
p24
F21831.0
tp25
a(S'4c:60:de:d0:f5:77'
p26
S'38.106.70.165'
p27
S'24.184.48.99'
p28
S'2012-10-04 12:50:48'
p29
F21898.0
tp30
a(S'4c:60:de:d0:f5:77'
p31
S'38.106.70.143'
p32
S'24.184.48.99'
p33
S'2012-10-05 00:30:31'
p34
F21778.0
tp35
a(S'4c:60:de:d0:f5:77'
p36
S'38.106.70.153'
p37
S'24.184.48.99'
p38
S'2012-10-05 06:40:36'
p39
F21807.0
tp40
a(S'4c:60:de:d0:f5:77'
p41
S'38.106.70.143'
p42
S'24.184.48.99'
p43
S'2012-10-05 13:30:48'
p44
F21891.0
tp45
a(S'4c:60:de:d0:f5:77'
p46
S'38.106.70.153'
p47
S'24.184.48.99'
p48
S'2012-10-06 10:19:21'
p49
F21900.0
tp50
a(S'4c:60:de:d0:f5:77'
p51
S'38.106.70.153'
p52
S'24.184.48.99'
p53
S'2012-10-06 17:29:37'
p54
F21427.0
tp55
a(S'4c:60:de:d0:f5:77'
p56
S'38.106.70.153'
p57
S'24.184.48.99'
p58
S'2012-10-06 23:39:52'
p59
F21480.0
tp60
a(S'4c:60:de:d0:f5:77'
p61
S'38.106.70.165'
p62
S'24.184.48.99'
p63
S'2012-10-07 11:19:20'
p64
F21896.0
tp65
a(S'4c:60:de:d0:f5:77'
p66
S'38.106.70.165'
p67
S'24.184.48.99'
p68
S'2012-10-07 17:29:36'
p69
F21844.0
tp70
a(S'4c:60:de:d0:f5:77'
p71
S'38.106.70.153'
p72
S'24.184.48.99'
p73
S'2012-10-08 11:19:22'
p74
F21894.0
tp75
a(S'4c:60:de:d0:f5:77'
p76
S'38.106.70.143'
p77
S'24.184.48.99'
p78
S'2012-10-08 21:29:37'
p79
F21787.0
tp80
a(S'4c:60:de:d0:f5:77'
p81
S'38.106.70.153'
p82
S'24.184.48.99'
p83
S'2012-10-09 05:39:50'
p84
F21898.0
tp85
a(S'4c:60:de:d0:f5:77'
p86
S'38.106.70.143'
p87
S'24.184.48.99'
p88
S'2012-10-09 17:49:27'
p89
F21678.0
tp90
a(S'4c:60:de:d0:f5:77'
p91
S'38.106.70.165'
p92
S'24.184.48.99'
p93
S'2012-10-09 23:59:36'
p94
F21658.0
tp95
a(S'4c:60:de:d0:f5:77'
p96
S'38.106.70.165'
p97
S'24.184.48.99'
p98
S'2012-10-10 06:09:49'
p99
F21830.0
tp100
a(S'4c:60:de:d0:f5:77'
p101
S'38.106.70.165'
p102
S'24.184.48.99'
p103
S'2012-10-10 23:59:37'
p104
F21476.0
tp105
a(S'4c:60:de:d0:f5:77'
p106
S'38.106.70.143'
p107
S'24.184.48.99'
p108
S'2012-10-11 06:09:48'
p109
F21851.0
tp110
a(S'4c:60:de:d0:f5:77'
p111
S'38.106.70.153'
p112
S'24.184.48.99'
p113
S'2012-10-11 17:49:20'
p114
F21706.0
tp115
a(S'4c:60:de:d0:f5:77'
p116
S'38.106.70.153'
p117
S'24.184.48.99'
p118
S'2012-10-11 23:59:38'
p119
F21879.0
tp120
a(S'4c:60:de:d0:f5:77'
p121
S'38.106.70.165'
p122
S'24.184.48.99'
p123
S'2012-10-12 06:09:50'
p124
F21890.0
tp125
a(S'4c:60:de:d0:f5:77'
p126
S'38.106.70.153'
p127
S'24.184.48.99'
p128
S'2012-10-12 17:49:19'
p129
F21880.0
tp130
a(S'4c:60:de:d0:f5:77'
p131
S'38.106.70.165'
p132
S'24.184.48.99'
p133
S'2012-10-12 23:59:38'
p134
F21601.0
tp135
a(S'4c:60:de:d0:f5:77'
p136
S'38.106.70.165'
p137
S'24.184.48.99'
p138
S'2012-10-13 22:19:21'
p139
F21809.0
tp140
a(S'4c:60:de:d0:f5:77'
p141
S'38.106.70.153'
p142
S'24.184.48.99'
p143
S'2012-10-14 05:29:37'
p144
F21830.0
tp145
a(S'4c:60:de:d0:f5:77'
p146
S'38.106.70.165'
p147
S'24.184.48.99'
p148
S'2012-10-14 11:39:48'
p149
F21898.0
tp150
a(S'4c:60:de:d0:f5:77'
p151
S'38.106.70.165'
p152
S'24.184.48.99'
p153
S'2012-10-14 23:18:21'
p154
F21715.0
tp155
a.