(lp0
(S'4c:60:de:d0:f7:4b'
p1
S'4.71.254.140'
p2
S'69.94.209.214'
p3
S'2012-10-02 07:59:21'
p4
F99128.0
tp5
a(S'4c:60:de:d0:f7:4b'
p6
S'4.71.254.140'
p7
S'69.94.209.214'
p8
S'2012-10-02 14:09:35'
p9
F99128.0
tp10
a(S'4c:60:de:d0:f7:4b'
p11
S'4.71.254.153'
p12
S'69.94.209.214'
p13
S'2012-10-02 20:19:50'
p14
F99110.0
tp15
a(S'4c:60:de:d0:f7:4b'
p16
S'4.71.254.153'
p17
S'69.94.209.214'
p18
S'2012-10-03 07:59:21'
p19
F99145.0
tp20
a(S'4c:60:de:d0:f7:4b'
p21
S'4.71.254.140'
p22
S'69.94.209.214'
p23
S'2012-10-03 14:09:38'
p24
F99145.0
tp25
a(S'4c:60:de:d0:f7:4b'
p26
S'4.71.254.140'
p27
S'69.94.209.214'
p28
S'2012-10-03 20:19:52'
p29
F99180.0
tp30
a(S'4c:60:de:d0:f7:4b'
p31
S'4.71.254.153'
p32
S'69.94.209.214'
p33
S'2012-10-04 07:59:21'
p34
F99145.0
tp35
a(S'4c:60:de:d0:f7:4b'
p36
S'4.71.254.140'
p37
S'69.94.209.214'
p38
S'2012-10-04 14:09:35'
p39
F99180.0
tp40
a(S'4c:60:de:d0:f7:4b'
p41
S'4.71.254.153'
p42
S'69.94.209.214'
p43
S'2012-10-04 20:19:53'
p44
F99180.0
tp45
a(S'4c:60:de:d0:f7:4b'
p46
S'4.71.254.153'
p47
S'69.94.209.214'
p48
S'2012-10-05 07:59:24'
p49
F99180.0
tp50
a(S'4c:60:de:d0:f7:4b'
p51
S'4.71.254.140'
p52
S'69.94.209.214'
p53
S'2012-10-05 14:09:41'
p54
F99128.0
tp55
a(S'4c:60:de:d0:f7:4b'
p56
S'4.71.254.153'
p57
S'69.94.209.214'
p58
S'2012-10-05 20:19:58'
p59
F99163.0
tp60
a(S'4c:60:de:d0:f7:4b'
p61
S'4.71.254.140'
p62
S'69.94.209.214'
p63
S'2012-10-06 07:59:24'
p64
F99145.0
tp65
a(S'4c:60:de:d0:f7:4b'
p66
S'4.71.254.153'
p67
S'69.94.209.214'
p68
S'2012-10-06 14:09:40'
p69
F99110.0
tp70
a(S'4c:60:de:d0:f7:4b'
p71
S'4.71.254.140'
p72
S'69.94.209.214'
p73
S'2012-10-06 20:19:54'
p74
F99128.0
tp75
a(S'4c:60:de:d0:f7:4b'
p76
S'4.71.254.140'
p77
S'69.94.209.214'
p78
S'2012-10-07 09:59:26'
p79
F99110.0
tp80
a(S'4c:60:de:d0:f7:4b'
p81
S'4.71.254.140'
p82
S'69.94.209.214'
p83
S'2012-10-08 12:39:26'
p84
F99110.0
tp85
a(S'4c:60:de:d0:f7:4b'
p86
S'4.71.254.140'
p87
S'69.94.209.214'
p88
S'2012-10-08 18:49:29'
p89
F99145.0
tp90
a(S'4c:60:de:d0:f7:4b'
p91
S'4.71.254.153'
p92
S'69.94.209.214'
p93
S'2012-10-09 00:59:54'
p94
F97014.0
tp95
a(S'4c:60:de:d0:f7:4b'
p96
S'4.71.254.140'
p97
S'69.94.209.214'
p98
S'2012-10-09 12:39:31'
p99
F99180.0
tp100
a(S'4c:60:de:d0:f7:4b'
p101
S'4.71.254.153'
p102
S'69.94.209.214'
p103
S'2012-10-09 18:49:38'
p104
F99145.0
tp105
a(S'4c:60:de:d0:f7:4b'
p106
S'4.71.254.153'
p107
S'69.94.209.214'
p108
S'2012-10-10 00:59:54'
p109
F92341.0
tp110
a(S'4c:60:de:d0:f7:4b'
p111
S'4.71.254.140'
p112
S'69.94.209.214'
p113
S'2012-10-10 12:39:26'
p114
F99180.0
tp115
a(S'4c:60:de:d0:f7:4b'
p116
S'4.71.254.140'
p117
S'69.94.209.214'
p118
S'2012-10-11 00:59:51'
p119
F99110.0
tp120
a(S'4c:60:de:d0:f7:4b'
p121
S'4.71.254.153'
p122
S'69.94.209.214'
p123
S'2012-10-11 12:39:25'
p124
F99215.0
tp125
a(S'4c:60:de:d0:f7:4b'
p126
S'4.71.254.153'
p127
S'69.94.209.214'
p128
S'2012-10-11 18:49:37'
p129
F99233.0
tp130
a(S'4c:60:de:d0:f7:4b'
p131
S'4.71.254.153'
p132
S'69.94.209.214'
p133
S'2012-10-12 00:59:53'
p134
F99198.0
tp135
a(S'4c:60:de:d0:f7:4b'
p136
S'4.71.254.153'
p137
S'69.94.209.214'
p138
S'2012-10-12 12:39:26'
p139
F99198.0
tp140
a(S'4c:60:de:d0:f7:4b'
p141
S'4.71.254.153'
p142
S'69.94.209.214'
p143
S'2012-10-13 00:58:52'
p144
F99233.0
tp145
a(S'4c:60:de:d0:f7:4b'
p146
S'4.71.254.140'
p147
S'69.94.209.214'
p148
S'2012-10-13 19:08:47'
p149
F99198.0
tp150
a(S'4c:60:de:d0:f7:4b'
p151
S'4.71.254.153'
p152
S'69.94.209.214'
p153
S'2012-10-14 01:18:52'
p154
F99233.0
tp155
a(S'4c:60:de:d0:f7:4b'
p156
S'4.71.254.153'
p157
S'69.94.209.214'
p158
S'2012-10-14 12:58:26'
p159
F99233.0
tp160
a(S'4c:60:de:d0:f7:4b'
p161
S'4.71.254.153'
p162
S'69.94.209.214'
p163
S'2012-10-14 19:08:40'
p164
F99163.0
tp165
a.