(lp0
(S'4c:60:de:e6:c9:ab'
p1
S'24.14.199.139'
p2
S'143.215.131.173'
p3
S'2012-10-02 18:06:02'
p4
F1368.0
tp5
a(S'4c:60:de:e6:c9:ab'
p6
S'24.14.199.139'
p7
S'38.106.70.153'
p8
S'2012-10-03 16:50:26'
p9
F4264.0
tp10
a(S'4c:60:de:e6:c9:ab'
p11
S'24.14.199.139'
p12
S'38.106.70.165'
p13
S'2012-10-03 23:00:44'
p14
F1374.0
tp15
a(S'4c:60:de:e6:c9:ab'
p16
S'24.14.199.139'
p17
S'38.106.70.143'
p18
S'2012-10-04 05:10:54'
p19
F4274.0
tp20
a(S'4c:60:de:e6:c9:ab'
p21
S'24.14.199.139'
p22
S'38.106.70.165'
p23
S'2012-10-04 16:50:27'
p24
F4262.0
tp25
a(S'4c:60:de:e6:c9:ab'
p26
S'24.14.199.139'
p27
S'38.106.70.165'
p28
S'2012-10-04 23:00:44'
p29
F1364.0
tp30
a(S'4c:60:de:e6:c9:ab'
p31
S'24.14.199.139'
p32
S'38.106.70.165'
p33
S'2012-10-05 05:19:55'
p34
F4266.0
tp35
a(S'4c:60:de:e6:c9:ab'
p36
S'24.14.199.139'
p37
S'38.106.70.153'
p38
S'2012-10-05 16:59:26'
p39
F4264.0
tp40
a(S'4c:60:de:e6:c9:ab'
p41
S'24.14.199.139'
p42
S'38.106.70.143'
p43
S'2012-10-06 03:59:41'
p44
F1376.0
tp45
a(S'4c:60:de:e6:c9:ab'
p46
S'24.14.199.139'
p47
S'38.106.70.143'
p48
S'2012-10-06 14:09:54'
p49
F4272.0
tp50
a(S'4c:60:de:e6:c9:ab'
p51
S'24.14.199.139'
p52
S'38.106.70.153'
p53
S'2012-10-07 01:49:32'
p54
F4521.0
tp55
a(S'4c:60:de:e6:c9:ab'
p56
S'24.14.199.139'
p57
S'38.106.70.153'
p58
S'2012-10-07 07:59:43'
p59
F4262.0
tp60
a(S'4c:60:de:e6:c9:ab'
p61
S'24.14.199.139'
p62
S'38.106.70.165'
p63
S'2012-10-08 01:49:25'
p64
F2078.0
tp65
a(S'4c:60:de:e6:c9:ab'
p66
S'24.14.199.139'
p67
S'38.106.70.153'
p68
S'2012-10-08 07:59:48'
p69
F4581.0
tp70
a(S'4c:60:de:e6:c9:ab'
p71
S'24.14.199.139'
p72
S'38.106.70.143'
p73
S'2012-10-08 16:09:55'
p74
F4277.0
tp75
a(S'4c:60:de:e6:c9:ab'
p76
S'24.14.199.139'
p77
S'38.106.70.153'
p78
S'2012-10-09 09:49:27'
p79
F4265.0
tp80
a(S'4c:60:de:e6:c9:ab'
p81
S'24.14.199.139'
p82
S'38.106.70.165'
p83
S'2012-10-09 15:59:42'
p84
F4269.0
tp85
a(S'4c:60:de:e6:c9:ab'
p86
S'24.14.199.139'
p87
S'38.106.70.153'
p88
S'2012-10-09 22:09:57'
p89
F4264.0
tp90
a(S'4c:60:de:e6:c9:ab'
p91
S'24.14.199.139'
p92
S'38.106.70.165'
p93
S'2012-10-10 22:09:53'
p94
F4581.0
tp95
a(S'4c:60:de:e6:c9:ab'
p96
S'24.14.199.139'
p97
S'38.106.70.143'
p98
S'2012-10-11 09:49:27'
p99
F4308.0
tp100
a(S'4c:60:de:e6:c9:ab'
p101
S'24.14.199.139'
p102
S'38.106.70.165'
p103
S'2012-10-11 15:58:43'
p104
F1372.0
tp105
a(S'4c:60:de:e6:c9:ab'
p106
S'24.14.199.139'
p107
S'38.106.70.165'
p108
S'2012-10-11 22:08:55'
p109
F4270.0
tp110
a(S'4c:60:de:e6:c9:ab'
p111
S'24.14.199.139'
p112
S'38.106.70.153'
p113
S'2012-10-12 09:48:26'
p114
F4272.0
tp115
a(S'4c:60:de:e6:c9:ab'
p116
S'24.14.199.139'
p117
S'38.106.70.143'
p118
S'2012-10-12 15:58:42'
p119
F1366.0
tp120
a(S'4c:60:de:e6:c9:ab'
p121
S'24.14.199.139'
p122
S'38.106.70.165'
p123
S'2012-10-13 09:48:27'
p124
F1366.0
tp125
a(S'4c:60:de:e6:c9:ab'
p126
S'24.14.199.139'
p127
S'38.106.70.143'
p128
S'2012-10-13 17:58:43'
p129
F4269.0
tp130
a(S'4c:60:de:e6:c9:ab'
p131
S'24.14.199.139'
p132
S'38.106.70.165'
p133
S'2012-10-14 02:08:54'
p134
F4262.0
tp135
a(S'4c:60:de:e6:c9:ab'
p136
S'24.14.199.139'
p137
S'38.106.70.143'
p138
S'2012-10-14 14:18:28'
p139
F4268.0
tp140
a(S'4c:60:de:e6:c9:ab'
p141
S'24.14.199.139'
p142
S'38.106.70.143'
p143
S'2012-10-14 20:28:43'
p144
F4271.0
tp145
a.