(lp0
(S'4c:60:de:e6:c9:ab'
p1
S'143.215.131.173'
p2
S'24.14.199.139'
p3
S'2012-10-02 18:06:02'
p4
F24243.0
tp5
a(S'4c:60:de:e6:c9:ab'
p6
S'38.106.70.153'
p7
S'24.14.199.139'
p8
S'2012-10-03 16:50:26'
p9
F22520.0
tp10
a(S'4c:60:de:e6:c9:ab'
p11
S'38.106.70.165'
p12
S'24.14.199.139'
p13
S'2012-10-03 23:00:44'
p14
F25968.0
tp15
a(S'4c:60:de:e6:c9:ab'
p16
S'38.106.70.143'
p17
S'24.14.199.139'
p18
S'2012-10-04 05:10:54'
p19
F22730.0
tp20
a(S'4c:60:de:e6:c9:ab'
p21
S'38.106.70.165'
p22
S'24.14.199.139'
p23
S'2012-10-04 16:50:27'
p24
F22771.0
tp25
a(S'4c:60:de:e6:c9:ab'
p26
S'38.106.70.165'
p27
S'24.14.199.139'
p28
S'2012-10-04 23:00:44'
p29
F25986.0
tp30
a(S'4c:60:de:e6:c9:ab'
p31
S'38.106.70.165'
p32
S'24.14.199.139'
p33
S'2012-10-05 05:19:55'
p34
F22612.0
tp35
a(S'4c:60:de:e6:c9:ab'
p36
S'38.106.70.153'
p37
S'24.14.199.139'
p38
S'2012-10-05 16:59:26'
p39
F22582.0
tp40
a(S'4c:60:de:e6:c9:ab'
p41
S'38.106.70.143'
p42
S'24.14.199.139'
p43
S'2012-10-06 03:59:41'
p44
F25925.0
tp45
a(S'4c:60:de:e6:c9:ab'
p46
S'38.106.70.143'
p47
S'24.14.199.139'
p48
S'2012-10-06 14:09:54'
p49
F22666.0
tp50
a(S'4c:60:de:e6:c9:ab'
p51
S'38.106.70.153'
p52
S'24.14.199.139'
p53
S'2012-10-07 01:49:32'
p54
F14144.0
tp55
a(S'4c:60:de:e6:c9:ab'
p56
S'38.106.70.153'
p57
S'24.14.199.139'
p58
S'2012-10-07 07:59:43'
p59
F22636.0
tp60
a(S'4c:60:de:e6:c9:ab'
p61
S'38.106.70.165'
p62
S'24.14.199.139'
p63
S'2012-10-08 01:49:25'
p64
F16335.0
tp65
a(S'4c:60:de:e6:c9:ab'
p66
S'38.106.70.153'
p67
S'24.14.199.139'
p68
S'2012-10-08 07:59:48'
p69
F12771.0
tp70
a(S'4c:60:de:e6:c9:ab'
p71
S'38.106.70.143'
p72
S'24.14.199.139'
p73
S'2012-10-08 16:09:55'
p74
F22505.0
tp75
a(S'4c:60:de:e6:c9:ab'
p76
S'38.106.70.153'
p77
S'24.14.199.139'
p78
S'2012-10-09 09:49:27'
p79
F23214.0
tp80
a(S'4c:60:de:e6:c9:ab'
p81
S'38.106.70.165'
p82
S'24.14.199.139'
p83
S'2012-10-09 15:59:42'
p84
F22932.0
tp85
a(S'4c:60:de:e6:c9:ab'
p86
S'38.106.70.153'
p87
S'24.14.199.139'
p88
S'2012-10-09 22:09:57'
p89
F22669.0
tp90
a(S'4c:60:de:e6:c9:ab'
p91
S'38.106.70.165'
p92
S'24.14.199.139'
p93
S'2012-10-10 22:09:53'
p94
F13515.0
tp95
a(S'4c:60:de:e6:c9:ab'
p96
S'38.106.70.143'
p97
S'24.14.199.139'
p98
S'2012-10-11 09:49:27'
p99
F22734.0
tp100
a(S'4c:60:de:e6:c9:ab'
p101
S'38.106.70.165'
p102
S'24.14.199.139'
p103
S'2012-10-11 15:58:43'
p104
F25986.0
tp105
a(S'4c:60:de:e6:c9:ab'
p106
S'38.106.70.165'
p107
S'24.14.199.139'
p108
S'2012-10-11 22:08:55'
p109
F22760.0
tp110
a(S'4c:60:de:e6:c9:ab'
p111
S'38.106.70.153'
p112
S'24.14.199.139'
p113
S'2012-10-12 09:48:26'
p114
F22563.0
tp115
a(S'4c:60:de:e6:c9:ab'
p116
S'38.106.70.143'
p117
S'24.14.199.139'
p118
S'2012-10-12 15:58:42'
p119
F25989.0
tp120
a(S'4c:60:de:e6:c9:ab'
p121
S'38.106.70.165'
p122
S'24.14.199.139'
p123
S'2012-10-13 09:48:27'
p124
F25973.0
tp125
a(S'4c:60:de:e6:c9:ab'
p126
S'38.106.70.143'
p127
S'24.14.199.139'
p128
S'2012-10-13 17:58:43'
p129
F23080.0
tp130
a(S'4c:60:de:e6:c9:ab'
p131
S'38.106.70.165'
p132
S'24.14.199.139'
p133
S'2012-10-14 02:08:54'
p134
F22515.0
tp135
a(S'4c:60:de:e6:c9:ab'
p136
S'38.106.70.143'
p137
S'24.14.199.139'
p138
S'2012-10-14 14:18:28'
p139
F22643.0
tp140
a(S'4c:60:de:e6:c9:ab'
p141
S'38.106.70.143'
p142
S'24.14.199.139'
p143
S'2012-10-14 20:28:43'
p144
F22575.0
tp145
a.