(lp0
(S'4c:60:de:d0:f5:65'
p1
S'173.164.212.198'
p2
S'143.215.131.173'
p3
S'2012-10-08 11:54:07'
p4
F21106.0
tp5
a(S'4c:60:de:d0:f5:65'
p6
S'173.164.212.198'
p7
S'143.215.131.173'
p8
S'2012-10-08 18:07:06'
p9
F21098.0
tp10
a(S'4c:60:de:d0:f5:65'
p11
S'173.164.212.198'
p12
S'64.9.225.140'
p13
S'2012-10-11 11:53:45'
p14
F21208.0
tp15
a(S'4c:60:de:d0:f5:65'
p16
S'173.164.212.198'
p17
S'64.9.225.161'
p18
S'2012-10-12 11:53:31'
p19
F21192.0
tp20
a(S'4c:60:de:d0:f5:65'
p21
S'173.164.212.198'
p22
S'64.9.225.140'
p23
S'2012-10-13 05:42:31'
p24
F18842.0
tp25
a(S'4c:60:de:d0:f5:65'
p26
S'173.164.212.198'
p27
S'64.9.225.161'
p28
S'2012-10-13 11:52:50'
p29
F21225.0
tp30
a(S'4c:60:de:d0:f5:65'
p31
S'173.164.212.198'
p32
S'64.9.225.161'
p33
S'2012-10-13 18:12:50'
p34
F21229.0
tp35
a(S'4c:60:de:d0:f5:65'
p36
S'173.164.212.198'
p37
S'64.9.225.140'
p38
S'2012-10-14 12:02:46'
p39
F21203.0
tp40
a.