(lp0
(S'74:44:01:93:62:28'
p1
S'203.178.130.223'
p2
S'122.167.82.59'
p3
S'2012-10-02 00:47:49'
p4
F4310.0
tp5
a(S'74:44:01:93:62:28'
p6
S'203.178.130.236'
p7
S'122.167.82.59'
p8
S'2012-10-02 13:27:19'
p9
F4305.0
tp10
a(S'74:44:01:93:62:28'
p11
S'203.178.130.223'
p12
S'122.167.82.59'
p13
S'2012-10-02 21:37:34'
p14
F4240.0
tp15
a(S'74:44:01:93:62:28'
p16
S'203.178.130.223'
p17
S'122.167.82.59'
p18
S'2012-10-03 03:47:50'
p19
F4311.0
tp20
a(S'74:44:01:93:62:28'
p21
S'203.178.130.210'
p22
S'122.167.82.59'
p23
S'2012-10-03 15:27:18'
p24
F4304.0
tp25
a(S'74:44:01:93:62:28'
p26
S'203.178.130.210'
p27
S'122.167.82.59'
p28
S'2012-10-03 21:37:43'
p29
F4310.0
tp30
a(S'74:44:01:93:62:28'
p31
S'203.178.130.236'
p32
S'122.167.82.59'
p33
S'2012-10-04 03:47:50'
p34
F4308.0
tp35
a(S'74:44:01:93:62:28'
p36
S'203.178.130.236'
p37
S'122.167.82.59'
p38
S'2012-10-04 15:27:16'
p39
F4300.0
tp40
a(S'74:44:01:93:62:28'
p41
S'203.178.130.236'
p42
S'122.167.82.59'
p43
S'2012-10-04 21:37:38'
p44
F4298.0
tp45
a(S'74:44:01:93:62:28'
p46
S'203.178.130.210'
p47
S'122.167.82.59'
p48
S'2012-10-05 03:47:48'
p49
F4312.0
tp50
a(S'74:44:01:93:62:28'
p51
S'203.178.130.236'
p52
S'122.167.82.59'
p53
S'2012-10-05 15:36:22'
p54
F4179.0
tp55
a(S'74:44:01:93:62:28'
p56
S'203.178.130.236'
p57
S'122.167.82.59'
p58
S'2012-10-05 22:46:46'
p59
F4310.0
tp60
a(S'74:44:01:93:62:28'
p61
S'203.178.130.223'
p62
S'122.167.82.59'
p63
S'2012-10-06 04:56:53'
p64
F4305.0
tp65
a(S'74:44:01:93:62:28'
p66
S'203.178.130.236'
p67
S'122.167.82.59'
p68
S'2012-10-06 17:36:18'
p69
F4224.0
tp70
a(S'74:44:01:93:62:28'
p71
S'203.178.130.223'
p72
S'122.167.82.59'
p73
S'2012-10-06 23:46:37'
p74
F4305.0
tp75
a(S'74:44:01:93:62:28'
p76
S'203.178.130.210'
p77
S'122.167.82.59'
p78
S'2012-10-07 05:56:50'
p79
F4306.0
tp80
a(S'74:44:01:93:62:28'
p81
S'203.178.130.210'
p82
S'122.167.82.59'
p83
S'2012-10-07 20:36:24'
p84
F4304.0
tp85
a(S'74:44:01:93:62:28'
p86
S'203.178.130.210'
p87
S'122.167.82.59'
p88
S'2012-10-08 02:46:34'
p89
F4294.0
tp90
a(S'74:44:01:93:62:28'
p91
S'203.178.130.236'
p92
S'122.178.233.191'
p93
S'2012-10-08 10:06:48'
p94
F4308.0
tp95
a(S'74:44:01:93:62:28'
p96
S'203.178.130.223'
p97
S'122.178.233.191'
p98
S'2012-10-08 21:46:23'
p99
F4309.0
tp100
a(S'74:44:01:93:62:28'
p101
S'203.178.130.210'
p102
S'122.178.249.206'
p103
S'2012-10-09 11:06:47'
p104
F3978.0
tp105
a(S'74:44:01:93:62:28'
p106
S'203.178.130.210'
p107
S'122.178.249.206'
p108
S'2012-10-09 23:46:16'
p109
F4289.0
tp110
a(S'74:44:01:93:62:28'
p111
S'203.178.130.236'
p112
S'122.178.249.206'
p113
S'2012-10-10 05:56:35'
p114
F4306.0
tp115
a(S'74:44:01:93:62:28'
p116
S'203.178.130.210'
p117
S'122.178.249.206'
p118
S'2012-10-10 23:46:18'
p119
F4302.0
tp120
a(S'74:44:01:93:62:28'
p121
S'203.178.130.223'
p122
S'122.178.249.206'
p123
S'2012-10-11 05:56:34'
p124
F4310.0
tp125
a(S'74:44:01:93:62:28'
p126
S'203.178.130.210'
p127
S'122.178.249.206'
p128
S'2012-10-11 12:06:45'
p129
F4306.0
tp130
a(S'74:44:01:93:62:28'
p131
S'203.178.130.236'
p132
S'122.178.249.206'
p133
S'2012-10-11 23:46:19'
p134
F4311.0
tp135
a(S'74:44:01:93:62:28'
p136
S'203.178.130.236'
p137
S'122.178.249.206'
p138
S'2012-10-12 05:56:35'
p139
F4308.0
tp140
a(S'74:44:01:93:62:28'
p141
S'203.178.130.210'
p142
S'122.172.254.119'
p143
S'2012-10-12 13:16:51'
p144
F4308.0
tp145
a(S'74:44:01:93:62:28'
p146
S'203.178.130.210'
p147
S'122.172.254.119'
p148
S'2012-10-13 01:55:19'
p149
F4309.0
tp150
a(S'74:44:01:93:62:28'
p151
S'203.178.130.210'
p152
S'122.172.254.119'
p153
S'2012-10-13 08:05:36'
p154
F4304.0
tp155
a(S'74:44:01:93:62:28'
p156
S'203.178.130.210'
p157
S'122.172.254.119'
p158
S'2012-10-13 15:15:51'
p159
F3758.0
tp160
a(S'74:44:01:93:62:28'
p161
S'203.178.130.223'
p162
S'122.172.254.119'
p163
S'2012-10-14 02:55:19'
p164
F4310.0
tp165
a(S'74:44:01:93:62:28'
p166
S'203.178.130.210'
p167
S'122.172.254.119'
p168
S'2012-10-14 09:05:37'
p169
F4304.0
tp170
a(S'74:44:01:93:62:28'
p171
S'203.178.130.223'
p172
S'122.172.254.119'
p173
S'2012-10-14 15:16:10'
p174
F3894.0
tp175
a.