(lp0
(S'a0:21:b7:a9:bf:50'
p1
S'143.215.131.173'
p2
S'10.0.1.24'
p3
S'2012-10-02 07:41:49'
p4
F11816.0
tp5
a(S'a0:21:b7:a9:bf:50'
p6
S'143.215.131.173'
p7
S'10.0.1.24'
p8
S'2012-10-02 13:58:17'
p9
F11814.0
tp10
a(S'a0:21:b7:a9:bf:50'
p11
S'143.215.131.173'
p12
S'10.0.1.24'
p13
S'2012-10-03 01:37:47'
p14
F11802.0
tp15
a(S'a0:21:b7:a9:bf:50'
p16
S'143.215.131.173'
p17
S'10.0.1.24'
p18
S'2012-10-03 07:48:13'
p19
F11814.0
tp20
a(S'a0:21:b7:a9:bf:50'
p21
S'143.215.131.173'
p22
S'10.0.1.24'
p23
S'2012-10-03 13:58:32'
p24
F11814.0
tp25
a(S'a0:21:b7:a9:bf:50'
p26
S'143.215.131.173'
p27
S'10.0.1.24'
p28
S'2012-10-04 01:38:20'
p29
F11758.0
tp30
a(S'a0:21:b7:a9:bf:50'
p31
S'143.215.131.173'
p32
S'10.0.1.24'
p33
S'2012-10-04 07:48:14'
p34
F11813.0
tp35
a(S'a0:21:b7:a9:bf:50'
p36
S'143.215.131.173'
p37
S'10.0.1.24'
p38
S'2012-10-04 13:58:33'
p39
F11814.0
tp40
a(S'a0:21:b7:a9:bf:50'
p41
S'143.215.131.173'
p42
S'10.0.1.24'
p43
S'2012-10-05 01:38:14'
p44
F11813.0
tp45
a(S'a0:21:b7:a9:bf:50'
p46
S'143.215.131.173'
p47
S'10.0.1.24'
p48
S'2012-10-05 07:48:14'
p49
F11815.0
tp50
a(S'a0:21:b7:a9:bf:50'
p51
S'143.215.131.173'
p52
S'10.0.1.24'
p53
S'2012-10-05 13:59:44'
p54
F11690.0
tp55
a(S'a0:21:b7:a9:bf:50'
p56
S'143.215.131.173'
p57
S'10.0.1.24'
p58
S'2012-10-06 01:58:03'
p59
F11814.0
tp60
a(S'a0:21:b7:a9:bf:50'
p61
S'143.215.131.173'
p62
S'10.0.1.24'
p63
S'2012-10-06 08:11:00'
p64
F11815.0
tp65
a(S'a0:21:b7:a9:bf:50'
p66
S'143.215.131.173'
p67
S'10.0.1.24'
p68
S'2012-10-06 14:28:26'
p69
F11747.0
tp70
a(S'a0:21:b7:a9:bf:50'
p71
S'143.215.131.173'
p72
S'10.0.1.24'
p73
S'2012-10-07 02:17:57'
p74
F11809.0
tp75
a(S'a0:21:b7:a9:bf:50'
p76
S'143.215.131.173'
p77
S'10.0.1.24'
p78
S'2012-10-07 08:28:54'
p79
F11813.0
tp80
a(S'a0:21:b7:a9:bf:50'
p81
S'143.215.131.173'
p82
S'10.0.1.24'
p83
S'2012-10-07 14:58:30'
p84
F11812.0
tp85
a(S'a0:21:b7:a9:bf:50'
p86
S'143.215.131.173'
p87
S'10.0.1.24'
p88
S'2012-10-09 02:38:27'
p89
F11814.0
tp90
a(S'a0:21:b7:a9:bf:50'
p91
S'143.215.131.173'
p92
S'10.0.1.24'
p93
S'2012-10-09 08:48:54'
p94
F11814.0
tp95
a(S'a0:21:b7:a9:bf:50'
p96
S'143.215.131.173'
p97
S'10.0.1.24'
p98
S'2012-10-09 14:58:23'
p99
F11804.0
tp100
a.