(lp0
(S'a0:21:b7:a9:bf:50'
p1
S'10.0.1.24'
p2
S'143.215.131.173'
p3
S'2012-10-02 07:41:49'
p4
F1526.0
tp5
a(S'a0:21:b7:a9:bf:50'
p6
S'10.0.1.24'
p7
S'143.215.131.173'
p8
S'2012-10-02 13:58:17'
p9
F1527.0
tp10
a(S'a0:21:b7:a9:bf:50'
p11
S'10.0.1.24'
p12
S'143.215.131.173'
p13
S'2012-10-03 01:37:47'
p14
F1510.0
tp15
a(S'a0:21:b7:a9:bf:50'
p16
S'10.0.1.24'
p17
S'143.215.131.173'
p18
S'2012-10-03 07:48:13'
p19
F1518.0
tp20
a(S'a0:21:b7:a9:bf:50'
p21
S'10.0.1.24'
p22
S'143.215.131.173'
p23
S'2012-10-03 13:58:32'
p24
F1518.0
tp25
a(S'a0:21:b7:a9:bf:50'
p26
S'10.0.1.24'
p27
S'143.215.131.173'
p28
S'2012-10-04 01:38:20'
p29
F1483.0
tp30
a(S'a0:21:b7:a9:bf:50'
p31
S'10.0.1.24'
p32
S'143.215.131.173'
p33
S'2012-10-04 07:48:14'
p34
F1526.0
tp35
a(S'a0:21:b7:a9:bf:50'
p36
S'10.0.1.24'
p37
S'143.215.131.173'
p38
S'2012-10-04 13:58:33'
p39
F1526.0
tp40
a(S'a0:21:b7:a9:bf:50'
p41
S'10.0.1.24'
p42
S'143.215.131.173'
p43
S'2012-10-05 01:38:14'
p44
F1525.0
tp45
a(S'a0:21:b7:a9:bf:50'
p46
S'10.0.1.24'
p47
S'143.215.131.173'
p48
S'2012-10-05 07:48:14'
p49
F1526.0
tp50
a(S'a0:21:b7:a9:bf:50'
p51
S'10.0.1.24'
p52
S'143.215.131.173'
p53
S'2012-10-05 13:59:44'
p54
F1391.0
tp55
a(S'a0:21:b7:a9:bf:50'
p56
S'10.0.1.24'
p57
S'143.215.131.173'
p58
S'2012-10-06 01:58:03'
p59
F1526.0
tp60
a(S'a0:21:b7:a9:bf:50'
p61
S'10.0.1.24'
p62
S'143.215.131.173'
p63
S'2012-10-06 08:11:00'
p64
F1519.0
tp65
a(S'a0:21:b7:a9:bf:50'
p66
S'10.0.1.24'
p67
S'143.215.131.173'
p68
S'2012-10-06 14:28:26'
p69
F1525.0
tp70
a(S'a0:21:b7:a9:bf:50'
p71
S'10.0.1.24'
p72
S'143.215.131.173'
p73
S'2012-10-07 02:17:57'
p74
F1525.0
tp75
a(S'a0:21:b7:a9:bf:50'
p76
S'10.0.1.24'
p77
S'143.215.131.173'
p78
S'2012-10-07 08:28:54'
p79
F1498.0
tp80
a(S'a0:21:b7:a9:bf:50'
p81
S'10.0.1.24'
p82
S'143.215.131.173'
p83
S'2012-10-07 14:58:30'
p84
F1525.0
tp85
a(S'a0:21:b7:a9:bf:50'
p86
S'10.0.1.24'
p87
S'143.215.131.173'
p88
S'2012-10-09 02:38:27'
p89
F1526.0
tp90
a(S'a0:21:b7:a9:bf:50'
p91
S'10.0.1.24'
p92
S'143.215.131.173'
p93
S'2012-10-09 08:48:54'
p94
F1526.0
tp95
a(S'a0:21:b7:a9:bf:50'
p96
S'10.0.1.24'
p97
S'143.215.131.173'
p98
S'2012-10-09 14:58:23'
p99
F1510.0
tp100
a.