(lp0
(S'a0:21:b7:a9:c6:55'
p1
S'76.111.39.202'
p2
S'4.71.254.153'
p3
S'2012-10-02 06:12:20'
p4
F4345.0
tp5
a(S'a0:21:b7:a9:c6:55'
p6
S'76.111.39.202'
p7
S'4.71.254.153'
p8
S'2012-10-02 12:22:38'
p9
F4314.0
tp10
a(S'a0:21:b7:a9:c6:55'
p11
S'76.111.39.202'
p12
S'4.71.254.140'
p13
S'2012-10-02 18:32:48'
p14
F4299.0
tp15
a(S'a0:21:b7:a9:c6:55'
p16
S'76.111.39.202'
p17
S'4.71.254.153'
p18
S'2012-10-03 06:12:33'
p19
F5519.0
tp20
a(S'a0:21:b7:a9:c6:55'
p21
S'76.111.39.202'
p22
S'4.71.254.153'
p23
S'2012-10-03 12:22:37'
p24
F4297.0
tp25
a(S'a0:21:b7:a9:c6:55'
p26
S'76.111.39.202'
p27
S'4.71.254.140'
p28
S'2012-10-03 18:32:54'
p29
F4290.0
tp30
a(S'a0:21:b7:a9:c6:55'
p31
S'76.111.39.202'
p32
S'4.71.254.140'
p33
S'2012-10-04 06:12:33'
p34
F4297.0
tp35
a(S'a0:21:b7:a9:c6:55'
p36
S'76.111.39.202'
p37
S'4.71.254.140'
p38
S'2012-10-04 12:22:49'
p39
F4324.0
tp40
a(S'a0:21:b7:a9:c6:55'
p41
S'76.111.39.202'
p42
S'4.71.254.153'
p43
S'2012-10-04 18:32:57'
p44
F4279.0
tp45
a(S'a0:21:b7:a9:c6:55'
p46
S'76.111.39.202'
p47
S'4.71.254.153'
p48
S'2012-10-05 06:22:35'
p49
F4448.0
tp50
a(S'a0:21:b7:a9:c6:55'
p51
S'76.111.39.202'
p52
S'4.71.254.140'
p53
S'2012-10-05 12:31:42'
p54
F4417.0
tp55
a(S'a0:21:b7:a9:c6:55'
p56
S'76.111.39.202'
p57
S'4.71.254.153'
p58
S'2012-10-05 18:41:54'
p59
F4420.0
tp60
a(S'a0:21:b7:a9:c6:55'
p61
S'76.111.39.202'
p62
S'4.71.254.153'
p63
S'2012-10-06 06:21:25'
p64
F4385.0
tp65
a(S'a0:21:b7:a9:c6:55'
p66
S'76.111.39.202'
p67
S'4.71.254.153'
p68
S'2012-10-06 18:41:52'
p69
F4406.0
tp70
a(S'a0:21:b7:a9:c6:55'
p71
S'76.111.39.202'
p72
S'4.71.254.153'
p73
S'2012-10-08 01:30:53'
p74
F4288.0
tp75
a(S'a0:21:b7:a9:c6:55'
p76
S'76.111.39.202'
p77
S'4.71.254.153'
p78
S'2012-10-08 13:10:27'
p79
F4295.0
tp80
a(S'a0:21:b7:a9:c6:55'
p81
S'76.111.39.202'
p82
S'4.71.254.140'
p83
S'2012-10-09 13:10:25'
p84
F4296.0
tp85
a(S'a0:21:b7:a9:c6:55'
p86
S'76.111.39.202'
p87
S'4.71.254.140'
p88
S'2012-10-09 19:20:39'
p89
F4286.0
tp90
a(S'a0:21:b7:a9:c6:55'
p91
S'76.111.39.202'
p92
S'4.71.254.153'
p93
S'2012-10-10 01:30:53'
p94
F4272.0
tp95
a(S'a0:21:b7:a9:c6:55'
p96
S'76.111.39.202'
p97
S'4.71.254.140'
p98
S'2012-10-10 13:10:26'
p99
F4325.0
tp100
a(S'a0:21:b7:a9:c6:55'
p101
S'76.111.39.202'
p102
S'4.71.254.153'
p103
S'2012-10-11 01:30:54'
p104
F4263.0
tp105
a(S'a0:21:b7:a9:c6:55'
p106
S'76.111.39.202'
p107
S'4.71.254.153'
p108
S'2012-10-11 13:10:26'
p109
F4286.0
tp110
a(S'a0:21:b7:a9:c6:55'
p111
S'76.111.39.202'
p112
S'4.71.254.153'
p113
S'2012-10-11 19:20:41'
p114
F4271.0
tp115
a(S'a0:21:b7:a9:c6:55'
p116
S'76.111.39.202'
p117
S'4.71.254.140'
p118
S'2012-10-12 01:30:54'
p119
F4272.0
tp120
a(S'a0:21:b7:a9:c6:55'
p121
S'76.111.39.202'
p122
S'4.71.254.140'
p123
S'2012-10-12 13:10:28'
p124
F4330.0
tp125
a(S'a0:21:b7:a9:c6:55'
p126
S'76.111.39.202'
p127
S'4.71.254.140'
p128
S'2012-10-13 01:31:11'
p129
F4448.0
tp130
a(S'a0:21:b7:a9:c6:55'
p131
S'76.111.39.202'
p132
S'4.71.254.153'
p133
S'2012-10-13 19:20:52'
p134
F4242.0
tp135
a(S'a0:21:b7:a9:c6:55'
p136
S'76.111.39.202'
p137
S'4.71.254.140'
p138
S'2012-10-14 13:10:29'
p139
F4336.0
tp140
a(S'a0:21:b7:a9:c6:55'
p141
S'76.111.39.202'
p142
S'4.71.254.153'
p143
S'2012-10-14 19:20:52'
p144
F4295.0
tp145
a.