(lp0
(S'c4:3d:c7:9b:5d:25'
p1
S'4.71.254.153'
p2
S'98.251.51.248'
p3
S'2012-10-02 09:26:22'
p4
F33695.0
tp5
a(S'c4:3d:c7:9b:5d:25'
p6
S'4.71.254.140'
p7
S'98.251.51.248'
p8
S'2012-10-02 15:36:38'
p9
F33662.0
tp10
a(S'c4:3d:c7:9b:5d:25'
p11
S'4.71.254.140'
p12
S'98.251.51.248'
p13
S'2012-10-02 21:46:52'
p14
F34251.0
tp15
a(S'c4:3d:c7:9b:5d:25'
p16
S'4.71.254.153'
p17
S'98.251.51.248'
p18
S'2012-10-03 09:05:22'
p19
F33676.0
tp20
a(S'c4:3d:c7:9b:5d:25'
p21
S'4.71.254.140'
p22
S'98.251.51.248'
p23
S'2012-10-03 15:15:40'
p24
F33706.0
tp25
a(S'c4:3d:c7:9b:5d:25'
p26
S'4.71.254.153'
p27
S'98.251.51.248'
p28
S'2012-10-03 21:25:50'
p29
F33687.0
tp30
a(S'c4:3d:c7:9b:5d:25'
p31
S'4.71.254.153'
p32
S'98.251.51.248'
p33
S'2012-10-04 09:05:25'
p34
F33707.0
tp35
a(S'c4:3d:c7:9b:5d:25'
p36
S'4.71.254.153'
p37
S'98.251.51.248'
p38
S'2012-10-04 15:15:36'
p39
F33571.0
tp40
a(S'c4:3d:c7:9b:5d:25'
p41
S'4.71.254.140'
p42
S'98.251.51.248'
p43
S'2012-10-04 21:25:54'
p44
F33315.0
tp45
a(S'c4:3d:c7:9b:5d:25'
p46
S'4.71.254.153'
p47
S'98.251.51.248'
p48
S'2012-10-05 09:05:26'
p49
F33707.0
tp50
a(S'c4:3d:c7:9b:5d:25'
p51
S'4.71.254.140'
p52
S'98.251.51.248'
p53
S'2012-10-05 15:15:43'
p54
F33470.0
tp55
a(S'c4:3d:c7:9b:5d:25'
p56
S'4.71.254.153'
p57
S'98.251.51.248'
p58
S'2012-10-05 21:26:02'
p59
F32761.0
tp60
a(S'c4:3d:c7:9b:5d:25'
p61
S'4.71.254.153'
p62
S'98.251.51.248'
p63
S'2012-10-06 09:05:25'
p64
F33693.0
tp65
a(S'c4:3d:c7:9b:5d:25'
p66
S'4.71.254.140'
p67
S'98.251.51.248'
p68
S'2012-10-06 15:15:42'
p69
F33689.0
tp70
a(S'c4:3d:c7:9b:5d:25'
p71
S'4.71.254.140'
p72
S'98.251.51.248'
p73
S'2012-10-06 21:25:53'
p74
F33703.0
tp75
a(S'c4:3d:c7:9b:5d:25'
p76
S'4.71.254.153'
p77
S'98.251.51.248'
p78
S'2012-10-07 21:15:41'
p79
F33707.0
tp80
a(S'c4:3d:c7:9b:5d:25'
p81
S'4.71.254.153'
p82
S'98.251.51.248'
p83
S'2012-10-08 03:25:58'
p84
F33686.0
tp85
a(S'c4:3d:c7:9b:5d:25'
p86
S'4.71.254.153'
p87
S'98.251.51.248'
p88
S'2012-10-08 15:05:26'
p89
F33698.0
tp90
a.