(lp0
(S'c4:3d:c7:8e:e0:81'
p1
S'64.9.225.161'
p2
S'108.203.55.66'
p3
S'2012-10-03 04:36:54'
p4
F2688.0
tp5
a(S'c4:3d:c7:8e:e0:81'
p6
S'64.9.225.140'
p7
S'108.203.55.66'
p8
S'2012-10-03 10:47:00'
p9
F2751.0
tp10
a(S'c4:3d:c7:8e:e0:81'
p11
S'64.9.225.140'
p12
S'108.203.55.66'
p13
S'2012-10-03 16:57:08'
p14
F2952.0
tp15
a(S'c4:3d:c7:8e:e0:81'
p16
S'64.9.225.140'
p17
S'108.203.55.66'
p18
S'2012-10-04 04:36:44'
p19
F2892.0
tp20
a(S'c4:3d:c7:8e:e0:81'
p21
S'64.9.225.161'
p22
S'108.203.55.66'
p23
S'2012-10-04 10:47:03'
p24
F969.0
tp25
a(S'c4:3d:c7:8e:e0:81'
p26
S'64.9.225.161'
p27
S'108.203.55.66'
p28
S'2012-10-06 04:36:43'
p29
F2736.0
tp30
a(S'c4:3d:c7:8e:e0:81'
p31
S'64.9.225.170'
p32
S'108.203.55.66'
p33
S'2012-10-06 10:46:56'
p34
F2951.0
tp35
a(S'c4:3d:c7:8e:e0:81'
p36
S'64.9.225.161'
p37
S'108.203.55.66'
p38
S'2012-10-06 16:57:11'
p39
F2810.0
tp40
a(S'c4:3d:c7:8e:e0:81'
p41
S'64.9.225.170'
p42
S'108.203.55.66'
p43
S'2012-10-07 05:56:43'
p44
F2935.0
tp45
a(S'c4:3d:c7:8e:e0:81'
p46
S'64.9.225.170'
p47
S'108.203.55.66'
p48
S'2012-10-08 14:35:59'
p49
F2745.0
tp50
a(S'c4:3d:c7:8e:e0:81'
p51
S'64.9.225.140'
p52
S'108.203.55.66'
p53
S'2012-10-08 20:46:51'
p54
F2951.0
tp55
a(S'c4:3d:c7:8e:e0:81'
p56
S'64.9.225.170'
p57
S'108.203.55.66'
p58
S'2012-10-09 08:25:53'
p59
F2740.0
tp60
a(S'c4:3d:c7:8e:e0:81'
p61
S'64.9.225.140'
p62
S'108.203.55.66'
p63
S'2012-10-09 14:35:47'
p64
F2952.0
tp65
a(S'c4:3d:c7:8e:e0:81'
p66
S'64.9.225.170'
p67
S'108.203.55.66'
p68
S'2012-10-10 08:26:04'
p69
F2947.0
tp70
a(S'c4:3d:c7:8e:e0:81'
p71
S'64.9.225.170'
p72
S'108.203.55.66'
p73
S'2012-10-10 20:46:23'
p74
F2952.0
tp75
a(S'c4:3d:c7:8e:e0:81'
p76
S'64.9.225.140'
p77
S'108.203.55.66'
p78
S'2012-10-11 09:55:55'
p79
F2952.0
tp80
a(S'c4:3d:c7:8e:e0:81'
p81
S'64.9.225.170'
p82
S'108.203.55.66'
p83
S'2012-10-11 17:46:01'
p84
F2747.0
tp85
a(S'c4:3d:c7:8e:e0:81'
p86
S'64.9.225.170'
p87
S'108.203.55.66'
p88
S'2012-10-12 18:05:44'
p89
F2749.0
tp90
a(S'c4:3d:c7:8e:e0:81'
p91
S'64.9.225.140'
p92
S'108.203.55.66'
p93
S'2012-10-13 02:55:08'
p94
F2952.0
tp95
a(S'c4:3d:c7:8e:e0:81'
p96
S'64.9.225.170'
p97
S'108.203.55.66'
p98
S'2012-10-13 09:05:21'
p99
F2946.0
tp100
a(S'c4:3d:c7:8e:e0:81'
p101
S'64.9.225.170'
p102
S'108.203.55.66'
p103
S'2012-10-14 02:54:57'
p104
F2706.0
tp105
a(S'c4:3d:c7:8e:e0:81'
p106
S'64.9.225.170'
p107
S'108.203.55.66'
p108
S'2012-10-14 09:05:11'
p109
F2723.0
tp110
a(S'c4:3d:c7:8e:e0:81'
p111
S'64.9.225.140'
p112
S'108.203.55.66'
p113
S'2012-10-14 20:44:54'
p114
F2772.0
tp115
a.