(lp0
(S'c4:3d:c7:a3:ed:ec'
p1
S'38.98.51.38'
p2
S'76.88.123.65'
p3
S'2012-10-02 00:37:44'
p4
F50933.0
tp5
a(S'c4:3d:c7:a3:ed:ec'
p6
S'38.98.51.38'
p7
S'76.88.123.65'
p8
S'2012-10-02 06:47:52'
p9
F51035.0
tp10
a(S'c4:3d:c7:a3:ed:ec'
p11
S'38.98.51.38'
p12
S'76.88.123.65'
p13
S'2012-10-03 02:21:27'
p14
F50993.0
tp15
a(S'c4:3d:c7:a3:ed:ec'
p16
S'38.98.51.38'
p17
S'76.88.123.65'
p18
S'2012-10-03 08:31:45'
p19
F51016.0
tp20
a(S'c4:3d:c7:a3:ed:ec'
p21
S'38.98.51.38'
p22
S'76.88.123.65'
p23
S'2012-10-03 14:31:14'
p24
F50882.0
tp25
a(S'c4:3d:c7:a3:ed:ec'
p26
S'38.98.51.38'
p27
S'76.88.123.65'
p28
S'2012-10-04 02:10:28'
p29
F50460.0
tp30
a(S'c4:3d:c7:a3:ed:ec'
p31
S'38.98.51.38'
p32
S'76.88.123.65'
p33
S'2012-10-04 09:20:52'
p34
F50958.0
tp35
a(S'c4:3d:c7:a3:ed:ec'
p36
S'38.98.51.38'
p37
S'76.88.123.65'
p38
S'2012-10-04 15:30:55'
p39
F50947.0
tp40
a(S'c4:3d:c7:a3:ed:ec'
p41
S'38.98.51.38'
p42
S'76.88.123.65'
p43
S'2012-10-05 03:10:27'
p44
F50954.0
tp45
a(S'c4:3d:c7:a3:ed:ec'
p46
S'38.98.51.38'
p47
S'76.88.123.65'
p48
S'2012-10-05 09:20:43'
p49
F51022.0
tp50
a(S'c4:3d:c7:a3:ed:ec'
p51
S'38.98.51.38'
p52
S'76.88.123.65'
p53
S'2012-10-05 15:31:12'
p54
F50897.0
tp55
a(S'c4:3d:c7:a3:ed:ec'
p56
S'38.98.51.38'
p57
S'76.88.123.65'
p58
S'2012-10-06 09:29:27'
p59
F50971.0
tp60
a(S'c4:3d:c7:a3:ed:ec'
p61
S'38.98.51.38'
p62
S'76.88.123.65'
p63
S'2012-10-06 15:39:57'
p64
F50928.0
tp65
a(S'c4:3d:c7:a3:ed:ec'
p66
S'38.98.51.38'
p67
S'76.88.123.65'
p68
S'2012-10-06 21:50:16'
p69
F50932.0
tp70
a(S'c4:3d:c7:a3:ed:ec'
p71
S'38.98.51.38'
p72
S'76.88.123.65'
p73
S'2012-10-07 11:05:27'
p74
F50956.0
tp75
a(S'c4:3d:c7:a3:ed:ec'
p76
S'38.98.51.38'
p77
S'76.88.123.65'
p78
S'2012-10-07 17:15:48'
p79
F50949.0
tp80
a(S'c4:3d:c7:a3:ed:ec'
p81
S'38.98.51.38'
p82
S'76.88.123.65'
p83
S'2012-10-07 23:25:56'
p84
F50962.0
tp85
a(S'c4:3d:c7:a3:ed:ec'
p86
S'38.98.51.38'
p87
S'76.88.123.65'
p88
S'2012-10-08 11:05:28'
p89
F50921.0
tp90
a(S'c4:3d:c7:a3:ed:ec'
p91
S'38.98.51.38'
p92
S'76.88.123.65'
p93
S'2012-10-08 17:15:45'
p94
F50944.0
tp95
a(S'c4:3d:c7:a3:ed:ec'
p96
S'38.98.51.38'
p97
S'76.88.123.65'
p98
S'2012-10-08 23:25:59'
p99
F50978.0
tp100
a(S'c4:3d:c7:a3:ed:ec'
p101
S'38.98.51.38'
p102
S'76.88.123.65'
p103
S'2012-10-09 11:05:28'
p104
F51023.0
tp105
a(S'c4:3d:c7:a3:ed:ec'
p106
S'38.98.51.38'
p107
S'76.88.123.65'
p108
S'2012-10-09 17:15:44'
p109
F50925.0
tp110
a(S'c4:3d:c7:a3:ed:ec'
p111
S'38.98.51.38'
p112
S'76.88.123.65'
p113
S'2012-10-09 23:25:37'
p114
F50962.0
tp115
a(S'c4:3d:c7:a3:ed:ec'
p116
S'38.98.51.38'
p117
S'76.88.123.65'
p118
S'2012-10-10 23:41:28'
p119
F50956.0
tp120
a(S'c4:3d:c7:a3:ed:ec'
p121
S'38.98.51.38'
p122
S'76.88.123.65'
p123
S'2012-10-11 06:48:29'
p124
F50936.0
tp125
a(S'c4:3d:c7:a3:ed:ec'
p126
S'38.98.51.38'
p127
S'76.88.123.65'
p128
S'2012-10-11 12:58:44'
p129
F51024.0
tp130
a(S'c4:3d:c7:a3:ed:ec'
p131
S'38.98.51.38'
p132
S'76.88.123.65'
p133
S'2012-10-11 19:08:56'
p134
F52344.0
tp135
a(S'c4:3d:c7:a3:ed:ec'
p136
S'38.98.51.38'
p137
S'76.88.123.65'
p138
S'2012-10-12 03:22:28'
p139
F50942.0
tp140
a(S'c4:3d:c7:a3:ed:ec'
p141
S'38.98.51.38'
p142
S'76.88.123.65'
p143
S'2012-10-12 09:35:02'
p144
F50950.0
tp145
a(S'c4:3d:c7:a3:ed:ec'
p146
S'38.98.51.38'
p147
S'76.88.123.65'
p148
S'2012-10-12 15:42:59'
p149
F50859.0
tp150
a(S'c4:3d:c7:a3:ed:ec'
p151
S'38.98.51.38'
p152
S'76.88.123.65'
p153
S'2012-10-13 03:21:30'
p154
F51021.0
tp155
a(S'c4:3d:c7:a3:ed:ec'
p156
S'38.98.51.38'
p157
S'76.88.123.65'
p158
S'2012-10-13 09:39:27'
p159
F50881.0
tp160
a(S'c4:3d:c7:a3:ed:ec'
p161
S'38.98.51.38'
p162
S'76.88.123.65'
p163
S'2012-10-13 15:49:50'
p164
F50997.0
tp165
a(S'c4:3d:c7:a3:ed:ec'
p166
S'38.98.51.38'
p167
S'76.88.123.65'
p168
S'2012-10-13 21:59:59'
p169
F52337.0
tp170
a(S'c4:3d:c7:a3:ed:ec'
p171
S'38.98.51.38'
p172
S'76.88.123.65'
p173
S'2012-10-14 09:39:27'
p174
F50998.0
tp175
a(S'c4:3d:c7:a3:ed:ec'
p176
S'38.98.51.38'
p177
S'76.88.123.65'
p178
S'2012-10-14 15:49:44'
p179
F50517.0
tp180
a(S'c4:3d:c7:a3:ed:ec'
p181
S'38.98.51.38'
p182
S'76.88.123.65'
p183
S'2012-10-14 22:00:01'
p184
F51039.0
tp185
a.