(lp0
(S'c4:3d:c7:a3:ed:ec'
p1
S'76.88.123.65'
p2
S'38.98.51.38'
p3
S'2012-10-02 00:37:44'
p4
F5132.0
tp5
a(S'c4:3d:c7:a3:ed:ec'
p6
S'76.88.123.65'
p7
S'38.98.51.38'
p8
S'2012-10-02 06:47:52'
p9
F5122.0
tp10
a(S'c4:3d:c7:a3:ed:ec'
p11
S'76.88.123.65'
p12
S'38.98.51.38'
p13
S'2012-10-03 02:21:27'
p14
F5106.0
tp15
a(S'c4:3d:c7:a3:ed:ec'
p16
S'76.88.123.65'
p17
S'38.98.51.38'
p18
S'2012-10-03 08:31:45'
p19
F5147.0
tp20
a(S'c4:3d:c7:a3:ed:ec'
p21
S'76.88.123.65'
p22
S'38.98.51.38'
p23
S'2012-10-03 14:31:14'
p24
F5133.0
tp25
a(S'c4:3d:c7:a3:ed:ec'
p26
S'76.88.123.65'
p27
S'38.98.51.38'
p28
S'2012-10-04 02:10:28'
p29
F4792.0
tp30
a(S'c4:3d:c7:a3:ed:ec'
p31
S'76.88.123.65'
p32
S'38.98.51.38'
p33
S'2012-10-04 09:20:52'
p34
F5154.0
tp35
a(S'c4:3d:c7:a3:ed:ec'
p36
S'76.88.123.65'
p37
S'38.98.51.38'
p38
S'2012-10-04 15:30:55'
p39
F5145.0
tp40
a(S'c4:3d:c7:a3:ed:ec'
p41
S'76.88.123.65'
p42
S'38.98.51.38'
p43
S'2012-10-05 03:10:27'
p44
F5149.0
tp45
a(S'c4:3d:c7:a3:ed:ec'
p46
S'76.88.123.65'
p47
S'38.98.51.38'
p48
S'2012-10-05 09:20:43'
p49
F5172.0
tp50
a(S'c4:3d:c7:a3:ed:ec'
p51
S'76.88.123.65'
p52
S'38.98.51.38'
p53
S'2012-10-05 15:31:12'
p54
F5141.0
tp55
a(S'c4:3d:c7:a3:ed:ec'
p56
S'76.88.123.65'
p57
S'38.98.51.38'
p58
S'2012-10-06 09:29:27'
p59
F5152.0
tp60
a(S'c4:3d:c7:a3:ed:ec'
p61
S'76.88.123.65'
p62
S'38.98.51.38'
p63
S'2012-10-06 15:39:57'
p64
F5200.0
tp65
a(S'c4:3d:c7:a3:ed:ec'
p66
S'76.88.123.65'
p67
S'38.98.51.38'
p68
S'2012-10-06 21:50:16'
p69
F5141.0
tp70
a(S'c4:3d:c7:a3:ed:ec'
p71
S'76.88.123.65'
p72
S'38.98.51.38'
p73
S'2012-10-07 11:05:27'
p74
F5208.0
tp75
a(S'c4:3d:c7:a3:ed:ec'
p76
S'76.88.123.65'
p77
S'38.98.51.38'
p78
S'2012-10-07 17:15:48'
p79
F5208.0
tp80
a(S'c4:3d:c7:a3:ed:ec'
p81
S'76.88.123.65'
p82
S'38.98.51.38'
p83
S'2012-10-07 23:25:56'
p84
F5131.0
tp85
a(S'c4:3d:c7:a3:ed:ec'
p86
S'76.88.123.65'
p87
S'38.98.51.38'
p88
S'2012-10-08 11:05:28'
p89
F5129.0
tp90
a(S'c4:3d:c7:a3:ed:ec'
p91
S'76.88.123.65'
p92
S'38.98.51.38'
p93
S'2012-10-08 17:15:45'
p94
F5103.0
tp95
a(S'c4:3d:c7:a3:ed:ec'
p96
S'76.88.123.65'
p97
S'38.98.51.38'
p98
S'2012-10-08 23:25:59'
p99
F5146.0
tp100
a(S'c4:3d:c7:a3:ed:ec'
p101
S'76.88.123.65'
p102
S'38.98.51.38'
p103
S'2012-10-09 11:05:28'
p104
F5196.0
tp105
a(S'c4:3d:c7:a3:ed:ec'
p106
S'76.88.123.65'
p107
S'38.98.51.38'
p108
S'2012-10-09 17:15:44'
p109
F5143.0
tp110
a(S'c4:3d:c7:a3:ed:ec'
p111
S'76.88.123.65'
p112
S'38.98.51.38'
p113
S'2012-10-09 23:25:37'
p114
F5137.0
tp115
a(S'c4:3d:c7:a3:ed:ec'
p116
S'76.88.123.65'
p117
S'38.98.51.38'
p118
S'2012-10-10 23:41:28'
p119
F5132.0
tp120
a(S'c4:3d:c7:a3:ed:ec'
p121
S'76.88.123.65'
p122
S'38.98.51.38'
p123
S'2012-10-11 06:48:29'
p124
F5165.0
tp125
a(S'c4:3d:c7:a3:ed:ec'
p126
S'76.88.123.65'
p127
S'38.98.51.38'
p128
S'2012-10-11 12:58:44'
p129
F5154.0
tp130
a(S'c4:3d:c7:a3:ed:ec'
p131
S'76.88.123.65'
p132
S'38.98.51.38'
p133
S'2012-10-11 19:08:56'
p134
F5095.0
tp135
a(S'c4:3d:c7:a3:ed:ec'
p136
S'76.88.123.65'
p137
S'38.98.51.38'
p138
S'2012-10-12 03:22:28'
p139
F5145.0
tp140
a(S'c4:3d:c7:a3:ed:ec'
p141
S'76.88.123.65'
p142
S'38.98.51.38'
p143
S'2012-10-12 09:35:02'
p144
F5224.0
tp145
a(S'c4:3d:c7:a3:ed:ec'
p146
S'76.88.123.65'
p147
S'38.98.51.38'
p148
S'2012-10-12 15:42:59'
p149
F5185.0
tp150
a(S'c4:3d:c7:a3:ed:ec'
p151
S'76.88.123.65'
p152
S'38.98.51.38'
p153
S'2012-10-13 03:21:30'
p154
F5174.0
tp155
a(S'c4:3d:c7:a3:ed:ec'
p156
S'76.88.123.65'
p157
S'38.98.51.38'
p158
S'2012-10-13 09:39:27'
p159
F5202.0
tp160
a(S'c4:3d:c7:a3:ed:ec'
p161
S'76.88.123.65'
p162
S'38.98.51.38'
p163
S'2012-10-13 15:49:50'
p164
F5162.0
tp165
a(S'c4:3d:c7:a3:ed:ec'
p166
S'76.88.123.65'
p167
S'38.98.51.38'
p168
S'2012-10-13 21:59:59'
p169
F5139.0
tp170
a(S'c4:3d:c7:a3:ed:ec'
p171
S'76.88.123.65'
p172
S'38.98.51.38'
p173
S'2012-10-14 09:39:27'
p174
F5210.0
tp175
a(S'c4:3d:c7:a3:ed:ec'
p176
S'76.88.123.65'
p177
S'38.98.51.38'
p178
S'2012-10-14 15:49:44'
p179
F5148.0
tp180
a(S'c4:3d:c7:a3:ed:ec'
p181
S'76.88.123.65'
p182
S'38.98.51.38'
p183
S'2012-10-14 22:00:01'
p184
F5167.0
tp185
a.