(lp0
(S'c4:3d:c7:a3:7c:4c'
p1
S'4.71.254.140'
p2
S'71.56.54.117'
p3
S'2012-10-02 00:30:38'
p4
F20523.0
tp5
a(S'c4:3d:c7:a3:7c:4c'
p6
S'4.71.254.140'
p7
S'71.56.54.117'
p8
S'2012-10-02 06:40:27'
p9
F22660.0
tp10
a(S'c4:3d:c7:a3:7c:4c'
p11
S'4.71.254.140'
p12
S'71.56.54.117'
p13
S'2012-10-02 12:50:48'
p14
F22590.0
tp15
a(S'c4:3d:c7:a3:7c:4c'
p16
S'4.71.254.140'
p17
S'71.56.54.117'
p18
S'2012-10-03 00:30:21'
p19
F21629.0
tp20
a(S'c4:3d:c7:a3:7c:4c'
p21
S'4.71.254.140'
p22
S'71.56.54.117'
p23
S'2012-10-03 06:40:35'
p24
F23311.0
tp25
a(S'c4:3d:c7:a3:7c:4c'
p26
S'4.71.254.153'
p27
S'71.56.54.117'
p28
S'2012-10-03 12:50:50'
p29
F23084.0
tp30
a(S'c4:3d:c7:a3:7c:4c'
p31
S'4.71.254.153'
p32
S'71.56.54.117'
p33
S'2012-10-04 00:30:26'
p34
F16524.0
tp35
a(S'c4:3d:c7:a3:7c:4c'
p36
S'4.71.254.153'
p37
S'71.56.54.117'
p38
S'2012-10-04 06:40:38'
p39
F22716.0
tp40
a(S'c4:3d:c7:a3:7c:4c'
p41
S'4.71.254.153'
p42
S'71.56.54.117'
p43
S'2012-10-04 12:50:49'
p44
F23189.0
tp45
a(S'c4:3d:c7:a3:7c:4c'
p46
S'4.71.254.140'
p47
S'71.56.54.117'
p48
S'2012-10-05 00:30:27'
p49
F21765.0
tp50
a(S'c4:3d:c7:a3:7c:4c'
p51
S'4.71.254.140'
p52
S'71.56.54.117'
p53
S'2012-10-05 06:40:37'
p54
F23294.0
tp55
a(S'c4:3d:c7:a3:7c:4c'
p56
S'4.71.254.140'
p57
S'71.56.54.117'
p58
S'2012-10-05 12:50:53'
p59
F23308.0
tp60
a(S'c4:3d:c7:a3:7c:4c'
p61
S'4.71.254.140'
p62
S'71.56.54.117'
p63
S'2012-10-06 00:30:30'
p64
F10916.0
tp65
a(S'c4:3d:c7:a3:7c:4c'
p66
S'4.71.254.153'
p67
S'71.56.54.117'
p68
S'2012-10-06 06:40:43'
p69
F25590.0
tp70
a(S'c4:3d:c7:a3:7c:4c'
p71
S'4.71.254.153'
p72
S'71.56.54.117'
p73
S'2012-10-06 12:50:52'
p74
F23171.0
tp75
a(S'c4:3d:c7:a3:7c:4c'
p76
S'4.71.254.140'
p77
S'71.56.54.117'
p78
S'2012-10-07 00:49:27'
p79
F20047.0
tp80
a(S'c4:3d:c7:a3:7c:4c'
p81
S'4.71.254.140'
p82
S'71.56.54.117'
p83
S'2012-10-08 04:39:26'
p84
F25485.0
tp85
a(S'c4:3d:c7:a3:7c:4c'
p86
S'4.71.254.140'
p87
S'71.56.54.117'
p88
S'2012-10-09 04:39:27'
p89
F21762.0
tp90
a(S'c4:3d:c7:a3:7c:4c'
p91
S'4.71.254.153'
p92
S'71.56.54.117'
p93
S'2012-10-09 10:49:54'
p94
F23286.0
tp95
a(S'c4:3d:c7:a3:7c:4c'
p96
S'4.71.254.140'
p97
S'71.56.54.117'
p98
S'2012-10-09 16:59:58'
p99
F25217.0
tp100
a(S'c4:3d:c7:a3:7c:4c'
p101
S'4.71.254.140'
p102
S'71.56.54.117'
p103
S'2012-10-10 04:39:26'
p104
F23118.0
tp105
a(S'c4:3d:c7:a3:7c:4c'
p106
S'4.71.254.153'
p107
S'71.56.54.117'
p108
S'2012-10-11 03:41:53'
p109
F17643.0
tp110
a(S'c4:3d:c7:a3:7c:4c'
p111
S'4.71.254.140'
p112
S'71.56.54.117'
p113
S'2012-10-11 15:21:24'
p114
F22776.0
tp115
a(S'c4:3d:c7:a3:7c:4c'
p116
S'4.71.254.153'
p117
S'71.56.54.117'
p118
S'2012-10-11 21:31:29'
p119
F25520.0
tp120
a(S'c4:3d:c7:a3:7c:4c'
p121
S'4.71.254.140'
p122
S'71.56.54.117'
p123
S'2012-10-12 03:20:54'
p124
F22990.0
tp125
a(S'c4:3d:c7:a3:7c:4c'
p126
S'4.71.254.140'
p127
S'71.56.54.117'
p128
S'2012-10-12 14:30:27'
p129
F22979.0
tp130
a(S'c4:3d:c7:a3:7c:4c'
p131
S'4.71.254.140'
p132
S'71.56.54.117'
p133
S'2012-10-12 20:40:41'
p134
F21857.0
tp135
a(S'c4:3d:c7:a3:7c:4c'
p136
S'4.71.254.140'
p137
S'71.56.54.117'
p138
S'2012-10-13 02:50:49'
p139
F22672.0
tp140
a(S'c4:3d:c7:a3:7c:4c'
p141
S'4.71.254.140'
p142
S'71.56.54.117'
p143
S'2012-10-13 14:30:38'
p144
F23107.0
tp145
a(S'c4:3d:c7:a3:7c:4c'
p146
S'4.71.254.140'
p147
S'71.56.54.117'
p148
S'2012-10-13 20:40:45'
p149
F22222.0
tp150
a(S'c4:3d:c7:a3:7c:4c'
p151
S'4.71.254.153'
p152
S'71.56.54.117'
p153
S'2012-10-14 02:50:34'
p154
F22184.0
tp155
a(S'c4:3d:c7:a3:7c:4c'
p156
S'4.71.254.153'
p157
S'71.56.54.117'
p158
S'2012-10-14 14:30:25'
p159
F22949.0
tp160
a(S'c4:3d:c7:a3:7c:4c'
p161
S'4.71.254.140'
p162
S'71.56.54.117'
p163
S'2012-10-14 20:40:42'
p164
F25603.0
tp165
a.