(lp0
(S'c4:3d:c7:a3:76:d3'
p1
S'4.71.254.153'
p2
S'72.145.176.136'
p3
S'2012-10-02 11:16:56'
p4
F2666.0
tp5
a(S'c4:3d:c7:a3:76:d3'
p6
S'4.71.254.140'
p7
S'72.145.176.136'
p8
S'2012-10-02 22:56:25'
p9
F2684.0
tp10
a(S'c4:3d:c7:a3:76:d3'
p11
S'4.71.254.140'
p12
S'72.145.176.136'
p13
S'2012-10-03 06:06:52'
p14
F2848.0
tp15
a(S'c4:3d:c7:a3:76:d3'
p16
S'4.71.254.153'
p17
S'72.145.180.63'
p18
S'2012-10-03 12:16:53'
p19
F2893.0
tp20
a(S'c4:3d:c7:a3:76:d3'
p21
S'4.71.254.153'
p22
S'72.145.180.63'
p23
S'2012-10-03 23:05:25'
p24
F2874.0
tp25
a(S'c4:3d:c7:a3:76:d3'
p26
S'4.71.254.153'
p27
S'72.145.180.63'
p28
S'2012-10-04 05:15:43'
p29
F2747.0
tp30
a(S'c4:3d:c7:a3:76:d3'
p31
S'4.71.254.153'
p32
S'72.145.180.63'
p33
S'2012-10-04 11:26:06'
p34
F2898.0
tp35
a(S'c4:3d:c7:a3:76:d3'
p36
S'4.71.254.153'
p37
S'72.145.180.63'
p38
S'2012-10-04 23:05:31'
p39
F2900.0
tp40
a(S'c4:3d:c7:a3:76:d3'
p41
S'4.71.254.153'
p42
S'72.145.180.63'
p43
S'2012-10-05 06:15:47'
p44
F2900.0
tp45
a(S'c4:3d:c7:a3:76:d3'
p46
S'4.71.254.140'
p47
S'72.145.180.63'
p48
S'2012-10-05 13:16:15'
p49
F2894.0
tp50
a(S'c4:3d:c7:a3:76:d3'
p51
S'4.71.254.140'
p52
S'72.145.180.63'
p53
S'2012-10-06 01:05:38'
p54
F2898.0
tp55
a(S'c4:3d:c7:a3:76:d3'
p56
S'4.71.254.140'
p57
S'72.145.180.63'
p58
S'2012-10-06 07:16:25'
p59
F2896.0
tp60
a(S'c4:3d:c7:a3:76:d3'
p61
S'4.71.254.153'
p62
S'72.145.180.63'
p63
S'2012-10-06 13:26:00'
p64
F2759.0
tp65
a(S'c4:3d:c7:a3:76:d3'
p66
S'4.71.254.153'
p67
S'72.145.180.63'
p68
S'2012-10-07 01:05:37'
p69
F2897.0
tp70
a(S'c4:3d:c7:a3:76:d3'
p71
S'4.71.254.140'
p72
S'72.145.180.63'
p73
S'2012-10-07 09:25:35'
p74
F2849.0
tp75
a(S'c4:3d:c7:a3:76:d3'
p76
S'4.71.254.140'
p77
S'72.145.180.63'
p78
S'2012-10-07 20:15:57'
p79
F2899.0
tp80
a(S'c4:3d:c7:a3:76:d3'
p81
S'4.71.254.140'
p82
S'72.145.180.63'
p83
S'2012-10-08 10:35:30'
p84
F2899.0
tp85
a(S'c4:3d:c7:a3:76:d3'
p86
S'4.71.254.153'
p87
S'72.145.180.63'
p88
S'2012-10-08 16:45:43'
p89
F2895.0
tp90
a(S'c4:3d:c7:a3:76:d3'
p91
S'4.71.254.140'
p92
S'72.145.180.63'
p93
S'2012-10-08 23:55:59'
p94
F2848.0
tp95
a(S'c4:3d:c7:a3:76:d3'
p96
S'4.71.254.153'
p97
S'72.145.180.63'
p98
S'2012-10-09 11:35:29'
p99
F2846.0
tp100
a(S'c4:3d:c7:a3:76:d3'
p101
S'4.71.254.153'
p102
S'72.145.180.63'
p103
S'2012-10-09 17:45:47'
p104
F2899.0
tp105
a(S'c4:3d:c7:a3:76:d3'
p106
S'4.71.254.153'
p107
S'72.145.180.63'
p108
S'2012-10-09 23:55:58'
p109
F2845.0
tp110
a(S'c4:3d:c7:a3:76:d3'
p111
S'4.71.254.153'
p112
S'72.145.180.63'
p113
S'2012-10-11 01:21:37'
p114
F2900.0
tp115
a(S'c4:3d:c7:a3:76:d3'
p116
S'4.71.254.153'
p117
S'72.145.180.63'
p118
S'2012-10-11 07:31:59'
p119
F2894.0
tp120
a(S'c4:3d:c7:a3:76:d3'
p121
S'4.71.254.153'
p122
S'72.145.180.63'
p123
S'2012-10-11 19:11:36'
p124
F2844.0
tp125
a(S'c4:3d:c7:a3:76:d3'
p126
S'4.71.254.153'
p127
S'72.145.180.63'
p128
S'2012-10-12 02:21:57'
p129
F2900.0
tp130
a(S'c4:3d:c7:a3:76:d3'
p131
S'4.71.254.140'
p132
S'72.145.180.63'
p133
S'2012-10-12 08:31:59'
p134
F2847.0
tp135
a(S'c4:3d:c7:a3:76:d3'
p136
S'4.71.254.140'
p137
S'72.145.180.63'
p138
S'2012-10-12 20:11:29'
p139
F2900.0
tp140
a(S'c4:3d:c7:a3:76:d3'
p141
S'4.71.254.153'
p142
S'72.145.180.63'
p143
S'2012-10-13 02:21:47'
p144
F2895.0
tp145
a(S'c4:3d:c7:a3:76:d3'
p146
S'4.71.254.153'
p147
S'72.145.180.63'
p148
S'2012-10-13 08:31:57'
p149
F2848.0
tp150
a(S'c4:3d:c7:a3:76:d3'
p151
S'4.71.254.153'
p152
S'72.145.180.63'
p153
S'2012-10-13 20:11:30'
p154
F2896.0
tp155
a(S'c4:3d:c7:a3:76:d3'
p156
S'4.71.254.153'
p157
S'72.145.180.63'
p158
S'2012-10-14 02:21:36'
p159
F2836.0
tp160
a(S'c4:3d:c7:a3:76:d3'
p161
S'4.71.254.153'
p162
S'72.145.180.63'
p163
S'2012-10-14 08:31:57'
p164
F2898.0
tp165
a(S'c4:3d:c7:a3:76:d3'
p166
S'4.71.254.153'
p167
S'72.145.180.63'
p168
S'2012-10-14 20:11:29'
p169
F2898.0
tp170
a.