(lp0
(S'c4:3d:c7:b0:ae:54'
p1
S'4.71.254.140'
p2
S'65.50.74.135'
p3
S'2012-10-02 05:28:36'
p4
F99198.0
tp5
a(S'c4:3d:c7:b0:ae:54'
p6
S'4.71.254.153'
p7
S'65.50.74.135'
p8
S'2012-10-02 11:38:49'
p9
F99180.0
tp10
a(S'c4:3d:c7:b0:ae:54'
p11
S'4.71.254.153'
p12
S'65.50.74.135'
p13
S'2012-10-02 23:18:21'
p14
F99215.0
tp15
a(S'c4:3d:c7:b0:ae:54'
p16
S'4.71.254.140'
p17
S'65.50.74.135'
p18
S'2012-10-03 05:28:37'
p19
F99163.0
tp20
a(S'c4:3d:c7:b0:ae:54'
p21
S'4.71.254.153'
p22
S'65.50.74.135'
p23
S'2012-10-03 11:38:49'
p24
F99303.0
tp25
a(S'c4:3d:c7:b0:ae:54'
p26
S'4.71.254.140'
p27
S'65.50.74.135'
p28
S'2012-10-03 23:17:20'
p29
F98673.0
tp30
a(S'c4:3d:c7:b0:ae:54'
p31
S'4.71.254.140'
p32
S'65.50.74.135'
p33
S'2012-10-04 11:37:59'
p34
F99268.0
tp35
a(S'c4:3d:c7:b0:ae:54'
p36
S'4.71.254.153'
p37
S'65.50.74.135'
p38
S'2012-10-05 05:27:42'
p39
F98378.0
tp40
a(S'c4:3d:c7:b0:ae:54'
p41
S'4.71.254.140'
p42
S'65.50.74.135'
p43
S'2012-10-05 11:37:55'
p44
F98987.0
tp45
a(S'c4:3d:c7:b0:ae:54'
p46
S'4.71.254.153'
p47
S'65.50.74.135'
p48
S'2012-10-05 23:17:26'
p49
F99251.0
tp50
a(S'c4:3d:c7:b0:ae:54'
p51
S'4.71.254.153'
p52
S'65.50.74.135'
p53
S'2012-10-06 05:27:43'
p54
F98275.0
tp55
a(S'c4:3d:c7:b0:ae:54'
p56
S'4.71.254.140'
p57
S'65.50.74.135'
p58
S'2012-10-06 12:17:54'
p59
F99251.0
tp60
a(S'c4:3d:c7:b0:ae:54'
p61
S'4.71.254.153'
p62
S'65.50.74.135'
p63
S'2012-10-06 23:57:24'
p64
F99057.0
tp65
a(S'c4:3d:c7:b0:ae:54'
p66
S'4.71.254.140'
p67
S'65.50.74.135'
p68
S'2012-10-07 07:07:29'
p69
F99198.0
tp70
a(S'c4:3d:c7:b0:ae:54'
p71
S'4.71.254.140'
p72
S'65.50.74.135'
p73
S'2012-10-07 16:38:01'
p74
F99145.0
tp75
a(S'c4:3d:c7:b0:ae:54'
p76
S'4.71.254.153'
p77
S'65.50.74.135'
p78
S'2012-10-08 04:37:25'
p79
F99110.0
tp80
a(S'c4:3d:c7:b0:ae:54'
p81
S'4.71.254.153'
p82
S'65.50.74.135'
p83
S'2012-10-09 04:37:27'
p84
F90696.0
tp85
a(S'c4:3d:c7:b0:ae:54'
p86
S'4.71.254.153'
p87
S'65.50.74.135'
p88
S'2012-10-09 16:57:50'
p89
F98482.0
tp90
a(S'c4:3d:c7:b0:ae:54'
p91
S'4.71.254.153'
p92
S'65.50.74.135'
p93
S'2012-10-10 04:37:24'
p94
F99128.0
tp95
a(S'c4:3d:c7:b0:ae:54'
p96
S'4.71.254.140'
p97
S'65.50.74.135'
p98
S'2012-10-11 00:52:37'
p99
F99233.0
tp100
a(S'c4:3d:c7:b0:ae:54'
p101
S'4.71.254.153'
p102
S'65.50.74.135'
p103
S'2012-10-11 07:02:43'
p104
F99233.0
tp105
a(S'c4:3d:c7:b0:ae:54'
p106
S'4.71.254.140'
p107
S'65.50.74.135'
p108
S'2012-10-11 18:42:25'
p109
F99163.0
tp110
a(S'c4:3d:c7:b0:ae:54'
p111
S'4.71.254.153'
p112
S'65.50.74.135'
p113
S'2012-10-12 00:52:41'
p114
F99092.0
tp115
a(S'c4:3d:c7:b0:ae:54'
p116
S'4.71.254.153'
p117
S'65.50.74.135'
p118
S'2012-10-12 07:02:53'
p119
F99180.0
tp120
a(S'c4:3d:c7:b0:ae:54'
p121
S'4.71.254.153'
p122
S'65.50.74.135'
p123
S'2012-10-12 18:42:16'
p124
F99409.0
tp125
a(S'c4:3d:c7:b0:ae:54'
p126
S'4.71.254.153'
p127
S'65.50.74.135'
p128
S'2012-10-13 00:52:41'
p129
F50512.0
tp130
a(S'c4:3d:c7:b0:ae:54'
p131
S'4.71.254.140'
p132
S'65.50.74.135'
p133
S'2012-10-13 19:01:25'
p134
F99128.0
tp135
a(S'c4:3d:c7:b0:ae:54'
p136
S'4.71.254.153'
p137
S'65.50.74.135'
p138
S'2012-10-14 01:11:31'
p139
F99198.0
tp140
a(S'c4:3d:c7:b0:ae:54'
p141
S'4.71.254.153'
p142
S'65.50.74.135'
p143
S'2012-10-14 07:21:39'
p144
F99321.0
tp145
a(S'c4:3d:c7:b0:ae:54'
p146
S'4.71.254.140'
p147
S'65.50.74.135'
p148
S'2012-10-14 19:01:27'
p149
F99128.0
tp150
a.