(lp0
(S'c4:3d:c7:b0:ca:b6'
p1
S'4.71.254.140'
p2
S'76.97.68.93'
p3
S'2012-10-02 00:36:51'
p4
F26094.0
tp5
a(S'c4:3d:c7:b0:ca:b6'
p6
S'4.71.254.140'
p7
S'76.97.68.93'
p8
S'2012-10-02 12:15:20'
p9
F25864.0
tp10
a(S'c4:3d:c7:b0:ca:b6'
p11
S'4.71.254.153'
p12
S'76.97.68.93'
p13
S'2012-10-02 18:25:36'
p14
F26094.0
tp15
a(S'c4:3d:c7:b0:ca:b6'
p16
S'4.71.254.140'
p17
S'76.97.68.93'
p18
S'2012-10-03 00:35:49'
p19
F25936.0
tp20
a(S'c4:3d:c7:b0:ca:b6'
p21
S'4.71.254.140'
p22
S'76.97.68.93'
p23
S'2012-10-03 13:05:20'
p24
F26083.0
tp25
a(S'c4:3d:c7:b0:ca:b6'
p26
S'4.71.254.140'
p27
S'76.97.68.93'
p28
S'2012-10-03 23:46:20'
p29
F26067.0
tp30
a(S'c4:3d:c7:b0:ca:b6'
p31
S'4.71.254.153'
p32
S'76.97.68.93'
p33
S'2012-10-04 05:56:35'
p34
F26039.0
tp35
a(S'c4:3d:c7:b0:ca:b6'
p36
S'4.71.254.153'
p37
S'76.97.68.93'
p38
S'2012-10-04 12:06:54'
p39
F25895.0
tp40
a(S'c4:3d:c7:b0:ca:b6'
p41
S'4.71.254.140'
p42
S'76.97.68.93'
p43
S'2012-10-04 23:46:26'
p44
F26106.0
tp45
a(S'c4:3d:c7:b0:ca:b6'
p46
S'4.71.254.140'
p47
S'76.97.68.93'
p48
S'2012-10-05 05:56:42'
p49
F26103.0
tp50
a(S'c4:3d:c7:b0:ca:b6'
p51
S'4.71.254.153'
p52
S'76.97.68.93'
p53
S'2012-10-05 12:06:53'
p54
F26111.0
tp55
a(S'c4:3d:c7:b0:ca:b6'
p56
S'4.71.254.153'
p57
S'76.97.68.93'
p58
S'2012-10-05 23:46:26'
p59
F26019.0
tp60
a(S'c4:3d:c7:b0:ca:b6'
p61
S'4.71.254.153'
p62
S'76.97.68.93'
p63
S'2012-10-06 05:56:40'
p64
F26111.0
tp65
a(S'c4:3d:c7:b0:ca:b6'
p66
S'4.71.254.153'
p67
S'76.97.68.93'
p68
S'2012-10-06 12:06:52'
p69
F26105.0
tp70
a(S'c4:3d:c7:b0:ca:b6'
p71
S'4.71.254.140'
p72
S'76.97.68.93'
p73
S'2012-10-06 23:46:26'
p74
F26092.0
tp75
a(S'c4:3d:c7:b0:ca:b6'
p76
S'4.71.254.140'
p77
S'76.97.68.93'
p78
S'2012-10-08 04:46:26'
p79
F26105.0
tp80
a(S'c4:3d:c7:b0:ca:b6'
p81
S'4.71.254.153'
p82
S'76.97.68.93'
p83
S'2012-10-08 10:56:31'
p84
F26110.0
tp85
a(S'c4:3d:c7:b0:ca:b6'
p86
S'4.71.254.140'
p87
S'76.97.68.93'
p88
S'2012-10-09 04:35:25'
p89
F25988.0
tp90
a(S'c4:3d:c7:b0:ca:b6'
p91
S'4.71.254.153'
p92
S'76.97.68.93'
p93
S'2012-10-09 10:45:42'
p94
F26117.0
tp95
a(S'c4:3d:c7:b0:ca:b6'
p96
S'4.71.254.140'
p97
S'76.97.68.93'
p98
S'2012-10-09 16:55:52'
p99
F26094.0
tp100
a(S'c4:3d:c7:b0:ca:b6'
p101
S'4.71.254.140'
p102
S'76.97.68.93'
p103
S'2012-10-10 04:35:26'
p104
F26105.0
tp105
a(S'c4:3d:c7:b0:ca:b6'
p106
S'4.71.254.153'
p107
S'76.97.68.93'
p108
S'2012-10-11 01:47:31'
p109
F25025.0
tp110
a(S'c4:3d:c7:b0:ca:b6'
p111
S'4.71.254.140'
p112
S'76.97.68.93'
p113
S'2012-10-11 07:57:52'
p114
F25974.0
tp115
a(S'c4:3d:c7:b0:ca:b6'
p116
S'4.71.254.140'
p117
S'76.97.68.93'
p118
S'2012-10-11 19:37:25'
p119
F25955.0
tp120
a(S'c4:3d:c7:b0:ca:b6'
p121
S'4.71.254.153'
p122
S'76.97.68.93'
p123
S'2012-10-12 01:47:30'
p124
F26108.0
tp125
a(S'c4:3d:c7:b0:ca:b6'
p126
S'4.71.254.140'
p127
S'76.97.68.93'
p128
S'2012-10-12 07:57:54'
p129
F25343.0
tp130
a(S'c4:3d:c7:b0:ca:b6'
p131
S'4.71.254.153'
p132
S'76.97.68.93'
p133
S'2012-10-12 19:37:25'
p134
F26110.0
tp135
a(S'c4:3d:c7:b0:ca:b6'
p136
S'4.71.254.153'
p137
S'76.97.68.93'
p138
S'2012-10-13 01:47:32'
p139
F25671.0
tp140
a(S'c4:3d:c7:b0:ca:b6'
p141
S'4.71.254.140'
p142
S'76.97.68.93'
p143
S'2012-10-13 07:57:52'
p144
F26109.0
tp145
a(S'c4:3d:c7:b0:ca:b6'
p146
S'4.71.254.140'
p147
S'76.97.68.93'
p148
S'2012-10-13 19:37:27'
p149
F26112.0
tp150
a(S'c4:3d:c7:b0:ca:b6'
p151
S'4.71.254.153'
p152
S'76.97.68.93'
p153
S'2012-10-14 01:47:31'
p154
F25357.0
tp155
a(S'c4:3d:c7:b0:ca:b6'
p156
S'4.71.254.140'
p157
S'76.97.68.93'
p158
S'2012-10-14 07:57:53'
p159
F26120.0
tp160
a(S'c4:3d:c7:b0:ca:b6'
p161
S'4.71.254.140'
p162
S'76.97.68.93'
p163
S'2012-10-14 19:37:24'
p164
F25951.0
tp165
a.