(lp0
(S'c4:3d:c7:9b:5d:25'
p1
S'98.251.51.248'
p2
S'4.71.254.153'
p3
S'2012-10-02 09:26:22'
p4
F7623.0
tp5
a(S'c4:3d:c7:9b:5d:25'
p6
S'98.251.51.248'
p7
S'4.71.254.140'
p8
S'2012-10-02 15:36:38'
p9
F7593.0
tp10
a(S'c4:3d:c7:9b:5d:25'
p11
S'98.251.51.248'
p12
S'4.71.254.140'
p13
S'2012-10-02 21:46:52'
p14
F7621.0
tp15
a(S'c4:3d:c7:9b:5d:25'
p16
S'98.251.51.248'
p17
S'4.71.254.153'
p18
S'2012-10-03 09:05:22'
p19
F8011.0
tp20
a(S'c4:3d:c7:9b:5d:25'
p21
S'98.251.51.248'
p22
S'4.71.254.140'
p23
S'2012-10-03 15:15:40'
p24
F7775.0
tp25
a(S'c4:3d:c7:9b:5d:25'
p26
S'98.251.51.248'
p27
S'4.71.254.153'
p28
S'2012-10-03 21:25:50'
p29
F7637.0
tp30
a(S'c4:3d:c7:9b:5d:25'
p31
S'98.251.51.248'
p32
S'4.71.254.153'
p33
S'2012-10-04 09:05:25'
p34
F7637.0
tp35
a(S'c4:3d:c7:9b:5d:25'
p36
S'98.251.51.248'
p37
S'4.71.254.153'
p38
S'2012-10-04 15:15:36'
p39
F7620.0
tp40
a(S'c4:3d:c7:9b:5d:25'
p41
S'98.251.51.248'
p42
S'4.71.254.140'
p43
S'2012-10-04 21:25:54'
p44
F7634.0
tp45
a(S'c4:3d:c7:9b:5d:25'
p46
S'98.251.51.248'
p47
S'4.71.254.153'
p48
S'2012-10-05 09:05:26'
p49
F7612.0
tp50
a(S'c4:3d:c7:9b:5d:25'
p51
S'98.251.51.248'
p52
S'4.71.254.140'
p53
S'2012-10-05 15:15:43'
p54
F7639.0
tp55
a(S'c4:3d:c7:9b:5d:25'
p56
S'98.251.51.248'
p57
S'4.71.254.153'
p58
S'2012-10-05 21:26:02'
p59
F7747.0
tp60
a(S'c4:3d:c7:9b:5d:25'
p61
S'98.251.51.248'
p62
S'4.71.254.153'
p63
S'2012-10-06 09:05:25'
p64
F7622.0
tp65
a(S'c4:3d:c7:9b:5d:25'
p66
S'98.251.51.248'
p67
S'4.71.254.140'
p68
S'2012-10-06 15:15:42'
p69
F7634.0
tp70
a(S'c4:3d:c7:9b:5d:25'
p71
S'98.251.51.248'
p72
S'4.71.254.140'
p73
S'2012-10-06 21:25:53'
p74
F7631.0
tp75
a(S'c4:3d:c7:9b:5d:25'
p76
S'98.251.51.248'
p77
S'4.71.254.153'
p78
S'2012-10-07 21:15:41'
p79
F7623.0
tp80
a(S'c4:3d:c7:9b:5d:25'
p81
S'98.251.51.248'
p82
S'4.71.254.153'
p83
S'2012-10-08 03:25:58'
p84
F7613.0
tp85
a(S'c4:3d:c7:9b:5d:25'
p86
S'98.251.51.248'
p87
S'4.71.254.153'
p88
S'2012-10-08 15:05:26'
p89
F7624.0
tp90
a.