(lp0
(S'c4:3d:c7:b0:ca:b6'
p1
S'76.97.68.93'
p2
S'4.71.254.140'
p3
S'2012-10-02 00:36:51'
p4
F4450.0
tp5
a(S'c4:3d:c7:b0:ca:b6'
p6
S'76.97.68.93'
p7
S'4.71.254.140'
p8
S'2012-10-02 12:15:20'
p9
F4277.0
tp10
a(S'c4:3d:c7:b0:ca:b6'
p11
S'76.97.68.93'
p12
S'4.71.254.153'
p13
S'2012-10-02 18:25:36'
p14
F4275.0
tp15
a(S'c4:3d:c7:b0:ca:b6'
p16
S'76.97.68.93'
p17
S'4.71.254.140'
p18
S'2012-10-03 00:35:49'
p19
F4273.0
tp20
a(S'c4:3d:c7:b0:ca:b6'
p21
S'76.97.68.93'
p22
S'4.71.254.140'
p23
S'2012-10-03 13:05:20'
p24
F4298.0
tp25
a(S'c4:3d:c7:b0:ca:b6'
p26
S'76.97.68.93'
p27
S'4.71.254.140'
p28
S'2012-10-03 23:46:20'
p29
F4290.0
tp30
a(S'c4:3d:c7:b0:ca:b6'
p31
S'76.97.68.93'
p32
S'4.71.254.153'
p33
S'2012-10-04 05:56:35'
p34
F4283.0
tp35
a(S'c4:3d:c7:b0:ca:b6'
p36
S'76.97.68.93'
p37
S'4.71.254.153'
p38
S'2012-10-04 12:06:54'
p39
F4296.0
tp40
a(S'c4:3d:c7:b0:ca:b6'
p41
S'76.97.68.93'
p42
S'4.71.254.140'
p43
S'2012-10-04 23:46:26'
p44
F4397.0
tp45
a(S'c4:3d:c7:b0:ca:b6'
p46
S'76.97.68.93'
p47
S'4.71.254.140'
p48
S'2012-10-05 05:56:42'
p49
F4288.0
tp50
a(S'c4:3d:c7:b0:ca:b6'
p51
S'76.97.68.93'
p52
S'4.71.254.153'
p53
S'2012-10-05 12:06:53'
p54
F4286.0
tp55
a(S'c4:3d:c7:b0:ca:b6'
p56
S'76.97.68.93'
p57
S'4.71.254.153'
p58
S'2012-10-05 23:46:26'
p59
F4282.0
tp60
a(S'c4:3d:c7:b0:ca:b6'
p61
S'76.97.68.93'
p62
S'4.71.254.153'
p63
S'2012-10-06 05:56:40'
p64
F4285.0
tp65
a(S'c4:3d:c7:b0:ca:b6'
p66
S'76.97.68.93'
p67
S'4.71.254.153'
p68
S'2012-10-06 12:06:52'
p69
F4288.0
tp70
a(S'c4:3d:c7:b0:ca:b6'
p71
S'76.97.68.93'
p72
S'4.71.254.140'
p73
S'2012-10-06 23:46:26'
p74
F4301.0
tp75
a(S'c4:3d:c7:b0:ca:b6'
p76
S'76.97.68.93'
p77
S'4.71.254.140'
p78
S'2012-10-08 04:46:26'
p79
F4345.0
tp80
a(S'c4:3d:c7:b0:ca:b6'
p81
S'76.97.68.93'
p82
S'4.71.254.153'
p83
S'2012-10-08 10:56:31'
p84
F4287.0
tp85
a(S'c4:3d:c7:b0:ca:b6'
p86
S'76.97.68.93'
p87
S'4.71.254.140'
p88
S'2012-10-09 04:35:25'
p89
F4293.0
tp90
a(S'c4:3d:c7:b0:ca:b6'
p91
S'76.97.68.93'
p92
S'4.71.254.153'
p93
S'2012-10-09 10:45:42'
p94
F4291.0
tp95
a(S'c4:3d:c7:b0:ca:b6'
p96
S'76.97.68.93'
p97
S'4.71.254.140'
p98
S'2012-10-09 16:55:52'
p99
F4283.0
tp100
a(S'c4:3d:c7:b0:ca:b6'
p101
S'76.97.68.93'
p102
S'4.71.254.140'
p103
S'2012-10-10 04:35:26'
p104
F4289.0
tp105
a(S'c4:3d:c7:b0:ca:b6'
p106
S'76.97.68.93'
p107
S'4.71.254.153'
p108
S'2012-10-11 01:47:31'
p109
F4255.0
tp110
a(S'c4:3d:c7:b0:ca:b6'
p111
S'76.97.68.93'
p112
S'4.71.254.140'
p113
S'2012-10-11 07:57:52'
p114
F4267.0
tp115
a(S'c4:3d:c7:b0:ca:b6'
p116
S'76.97.68.93'
p117
S'4.71.254.140'
p118
S'2012-10-11 19:37:25'
p119
F4302.0
tp120
a(S'c4:3d:c7:b0:ca:b6'
p121
S'76.97.68.93'
p122
S'4.71.254.153'
p123
S'2012-10-12 01:47:30'
p124
F4282.0
tp125
a(S'c4:3d:c7:b0:ca:b6'
p126
S'76.97.68.93'
p127
S'4.71.254.140'
p128
S'2012-10-12 07:57:54'
p129
F4265.0
tp130
a(S'c4:3d:c7:b0:ca:b6'
p131
S'76.97.68.93'
p132
S'4.71.254.153'
p133
S'2012-10-12 19:37:25'
p134
F4285.0
tp135
a(S'c4:3d:c7:b0:ca:b6'
p136
S'76.97.68.93'
p137
S'4.71.254.153'
p138
S'2012-10-13 01:47:32'
p139
F4279.0
tp140
a(S'c4:3d:c7:b0:ca:b6'
p141
S'76.97.68.93'
p142
S'4.71.254.140'
p143
S'2012-10-13 07:57:52'
p144
F4291.0
tp145
a(S'c4:3d:c7:b0:ca:b6'
p146
S'76.97.68.93'
p147
S'4.71.254.140'
p148
S'2012-10-13 19:37:27'
p149
F4340.0
tp150
a(S'c4:3d:c7:b0:ca:b6'
p151
S'76.97.68.93'
p152
S'4.71.254.153'
p153
S'2012-10-14 01:47:31'
p154
F4240.0
tp155
a(S'c4:3d:c7:b0:ca:b6'
p156
S'76.97.68.93'
p157
S'4.71.254.140'
p158
S'2012-10-14 07:57:53'
p159
F4271.0
tp160
a(S'c4:3d:c7:b0:ca:b6'
p161
S'76.97.68.93'
p162
S'4.71.254.140'
p163
S'2012-10-14 19:37:24'
p164
F4278.0
tp165
a.