(lp0
(S'c4:3d:c7:9d:e0:f7'
p1
S'4.71.254.140'
p2
S'184.77.62.196'
p3
S'2012-10-02 07:21:03'
p4
F11294.0
tp5
a(S'c4:3d:c7:9d:e0:f7'
p6
S'4.71.254.140'
p7
S'184.77.62.196'
p8
S'2012-10-02 20:50:25'
p9
F10537.0
tp10
a(S'c4:3d:c7:9d:e0:f7'
p11
S'4.71.254.140'
p12
S'184.77.62.196'
p13
S'2012-10-03 10:15:32'
p14
F11892.0
tp15
a(S'c4:3d:c7:9d:e0:f7'
p16
S'4.71.254.153'
p17
S'184.77.62.196'
p18
S'2012-10-03 16:55:58'
p19
F11396.0
tp20
a(S'c4:3d:c7:9d:e0:f7'
p21
S'4.71.254.140'
p22
S'184.77.62.196'
p23
S'2012-10-03 23:26:11'
p24
F9284.0
tp25
a(S'c4:3d:c7:9d:e0:f7'
p26
S'4.71.254.140'
p27
S'184.77.62.196'
p28
S'2012-10-04 11:05:22'
p29
F8584.0
tp30
a(S'c4:3d:c7:9d:e0:f7'
p31
S'4.71.254.140'
p32
S'184.77.62.196'
p33
S'2012-10-04 17:16:05'
p34
F12277.0
tp35
a(S'c4:3d:c7:9d:e0:f7'
p36
S'4.71.254.140'
p37
S'184.77.62.196'
p38
S'2012-10-04 23:26:06'
p39
F3614.0
tp40
a(S'c4:3d:c7:9d:e0:f7'
p41
S'4.71.254.153'
p42
S'184.77.62.196'
p43
S'2012-10-05 11:05:39'
p44
F10533.0
tp45
a(S'c4:3d:c7:9d:e0:f7'
p46
S'4.71.254.153'
p47
S'184.77.62.196'
p48
S'2012-10-05 17:15:56'
p49
F6398.0
tp50
a(S'c4:3d:c7:9d:e0:f7'
p51
S'4.71.254.153'
p52
S'184.77.62.196'
p53
S'2012-10-05 23:26:17'
p54
F4946.0
tp55
a(S'c4:3d:c7:9d:e0:f7'
p56
S'4.71.254.140'
p57
S'184.77.62.196'
p58
S'2012-10-06 11:15:38'
p59
F4441.0
tp60
a(S'c4:3d:c7:9d:e0:f7'
p61
S'4.71.254.140'
p62
S'184.77.62.196'
p63
S'2012-10-06 17:56:00'
p64
F8267.0
tp65
a(S'c4:3d:c7:9d:e0:f7'
p66
S'4.71.254.153'
p67
S'184.77.62.196'
p68
S'2012-10-07 20:18:46'
p69
F2998.0
tp70
a(S'c4:3d:c7:9d:e0:f7'
p71
S'4.71.254.140'
p72
S'184.77.62.196'
p73
S'2012-10-08 02:29:07'
p74
F7096.0
tp75
a(S'c4:3d:c7:9d:e0:f7'
p76
S'4.71.254.153'
p77
S'184.77.62.196'
p78
S'2012-10-08 14:08:39'
p79
F11865.0
tp80
a(S'c4:3d:c7:9d:e0:f7'
p81
S'4.71.254.153'
p82
S'184.77.62.196'
p83
S'2012-10-08 20:38:35'
p84
F10756.0
tp85
a(S'c4:3d:c7:9d:e0:f7'
p86
S'4.71.254.153'
p87
S'184.77.62.196'
p88
S'2012-10-09 03:28:09'
p89
F5568.0
tp90
a(S'c4:3d:c7:9d:e0:f7'
p91
S'4.71.254.140'
p92
S'184.77.62.196'
p93
S'2012-10-09 16:27:39'
p94
F5754.0
tp95
a(S'c4:3d:c7:9d:e0:f7'
p96
S'4.71.254.140'
p97
S'184.77.62.196'
p98
S'2012-10-09 22:37:55'
p99
F6224.0
tp100
a(S'c4:3d:c7:9d:e0:f7'
p101
S'4.71.254.153'
p102
S'184.77.62.196'
p103
S'2012-10-10 23:51:37'
p104
F11606.0
tp105
a(S'c4:3d:c7:9d:e0:f7'
p106
S'4.71.254.153'
p107
S'184.77.62.196'
p108
S'2012-10-11 06:01:56'
p109
F13000.0
tp110
a(S'c4:3d:c7:9d:e0:f7'
p111
S'4.71.254.140'
p112
S'184.77.62.196'
p113
S'2012-10-11 12:11:55'
p114
F13320.0
tp115
a(S'c4:3d:c7:9d:e0:f7'
p116
S'4.71.254.153'
p117
S'184.77.62.196'
p118
S'2012-10-11 23:51:30'
p119
F14212.0
tp120
a(S'c4:3d:c7:9d:e0:f7'
p121
S'4.71.254.140'
p122
S'184.77.62.196'
p123
S'2012-10-12 06:01:38'
p124
F12657.0
tp125
a(S'c4:3d:c7:9d:e0:f7'
p126
S'4.71.254.140'
p127
S'184.77.62.196'
p128
S'2012-10-12 12:11:56'
p129
F8894.0
tp130
a(S'c4:3d:c7:9d:e0:f7'
p131
S'4.71.254.153'
p132
S'184.77.62.196'
p133
S'2012-10-12 23:51:39'
p134
F5318.0
tp135
a(S'c4:3d:c7:9d:e0:f7'
p136
S'4.71.254.153'
p137
S'184.77.62.196'
p138
S'2012-10-13 06:01:43'
p139
F10803.0
tp140
a(S'c4:3d:c7:9d:e0:f7'
p141
S'4.71.254.153'
p142
S'184.77.62.196'
p143
S'2012-10-13 11:41:17'
p144
F12239.0
tp145
a(S'c4:3d:c7:9d:e0:f7'
p146
S'4.71.254.153'
p147
S'184.77.62.196'
p148
S'2012-10-14 05:11:46'
p149
F11833.0
tp150
a(S'c4:3d:c7:9d:e0:f7'
p151
S'4.71.254.153'
p152
S'184.77.62.196'
p153
S'2012-10-14 23:40:29'
p154
F9713.0
tp155
a.