(lp0
(S'2c:b0:5d:87:37:88'
p1
S'99.185.58.166'
p2
S'4.71.251.153'
p3
S'2012-10-02 02:16:05'
p4
F978.08000000000004
tp5
a(S'2c:b0:5d:87:37:88'
p6
S'99.185.58.166'
p7
S'4.71.251.153'
p8
S'2012-10-02 06:35:50'
p9
F1075.1800000000001
tp10
a(S'2c:b0:5d:87:37:88'
p11
S'99.185.58.166'
p12
S'4.71.251.153'
p13
S'2012-10-02 08:56:17'
p14
F951.55999999999995
tp15
a(S'2c:b0:5d:87:37:88'
p16
S'99.185.58.166'
p17
S'4.71.251.153'
p18
S'2012-10-02 13:16:05'
p19
F1091.3800000000001
tp20
a(S'2c:b0:5d:87:37:88'
p21
S'99.185.58.166'
p22
S'4.71.251.153'
p23
S'2012-10-02 17:36:17'
p24
F686.02999999999997
tp25
a(S'2c:b0:5d:87:37:88'
p26
S'99.185.58.166'
p27
S'4.71.251.153'
p28
S'2012-10-02 21:56:01'
p29
F1067.3399999999999
tp30
a(S'2c:b0:5d:87:37:88'
p31
S'99.185.58.166'
p32
S'4.71.251.166'
p33
S'2012-10-03 02:16:11'
p34
F509.41000000000003
tp35
a(S'2c:b0:5d:87:37:88'
p36
S'99.185.58.166'
p37
S'4.71.251.153'
p38
S'2012-10-03 06:35:57'
p39
F1025.3399999999999
tp40
a(S'2c:b0:5d:87:37:88'
p41
S'99.185.58.166'
p42
S'4.71.251.166'
p43
S'2012-10-03 08:56:25'
p44
F907.91999999999996
tp45
a(S'2c:b0:5d:87:37:88'
p46
S'99.185.58.166'
p47
S'4.71.251.153'
p48
S'2012-10-03 13:16:12'
p49
F752.55999999999995
tp50
a(S'2c:b0:5d:87:37:88'
p51
S'99.185.58.166'
p52
S'4.71.251.166'
p53
S'2012-10-03 17:37:13'
p54
F306.16000000000003
tp55
a(S'2c:b0:5d:87:37:88'
p56
S'99.185.58.166'
p57
S'4.71.251.153'
p58
S'2012-10-03 21:56:14'
p59
F665.90999999999997
tp60
a(S'2c:b0:5d:87:37:88'
p61
S'99.185.58.166'
p62
S'4.71.251.166'
p63
S'2012-10-04 02:45:10'
p64
F751.30999999999995
tp65
a(S'2c:b0:5d:87:37:88'
p66
S'99.185.58.166'
p67
S'4.71.251.153'
p68
S'2012-10-04 07:05:06'
p69
F969.07000000000005
tp70
a(S'2c:b0:5d:87:37:88'
p71
S'99.185.58.166'
p72
S'4.71.251.166'
p73
S'2012-10-04 09:25:12'
p74
F1497.54
tp75
a(S'2c:b0:5d:87:37:88'
p76
S'99.185.58.166'
p77
S'4.71.251.153'
p78
S'2012-10-04 13:45:01'
p79
F824.58000000000004
tp80
a(S'2c:b0:5d:87:37:88'
p81
S'99.185.58.166'
p82
S'4.71.251.153'
p83
S'2012-10-04 18:05:18'
p84
F870.30999999999995
tp85
a(S'2c:b0:5d:87:37:88'
p86
S'99.185.58.166'
p87
S'4.71.251.153'
p88
S'2012-10-04 22:25:09'
p89
F963.03999999999996
tp90
a(S'2c:b0:5d:87:37:88'
p91
S'99.185.58.166'
p92
S'4.71.251.153'
p93
S'2012-10-05 02:45:23'
p94
F278.87
tp95
a(S'2c:b0:5d:87:37:88'
p96
S'99.185.58.166'
p97
S'4.71.251.166'
p98
S'2012-10-05 07:05:04'
p99
F820.90999999999997
tp100
a(S'2c:b0:5d:87:37:88'
p101
S'99.185.58.166'
p102
S'4.71.251.166'
p103
S'2012-10-05 09:25:14'
p104
F1125.3699999999999
tp105
a(S'2c:b0:5d:87:37:88'
p106
S'99.185.58.166'
p107
S'4.71.251.166'
p108
S'2012-10-05 13:45:05'
p109
F1113.8599999999999
tp110
a(S'2c:b0:5d:87:37:88'
p111
S'99.185.58.166'
p112
S'4.71.251.153'
p113
S'2012-10-05 18:05:05'
p114
F1453.6600000000001
tp115
a(S'2c:b0:5d:87:37:88'
p116
S'99.185.58.166'
p117
S'4.71.251.166'
p118
S'2012-10-05 22:24:57'
p119
F1435.9200000000001
tp120
a(S'2c:b0:5d:87:37:88'
p121
S'99.185.58.166'
p122
S'4.71.251.153'
p123
S'2012-10-06 02:45:02'
p124
F1516.4000000000001
tp125
a(S'2c:b0:5d:87:37:88'
p126
S'99.185.58.166'
p127
S'4.71.251.153'
p128
S'2012-10-06 07:05:02'
p129
F1469.98
tp130
a(S'2c:b0:5d:87:37:88'
p131
S'99.185.58.166'
p132
S'4.71.251.153'
p133
S'2012-10-06 09:25:11'
p134
F1440.72
tp135
a(S'2c:b0:5d:87:37:88'
p136
S'99.185.58.166'
p137
S'4.71.251.153'
p138
S'2012-10-06 13:45:00'
p139
F1444.27
tp140
a(S'2c:b0:5d:87:37:88'
p141
S'99.185.58.166'
p142
S'4.71.251.153'
p143
S'2012-10-06 18:05:50'
p144
F489.06999999999999
tp145
a(S'2c:b0:5d:87:37:88'
p146
S'99.185.58.166'
p147
S'4.71.251.153'
p148
S'2012-10-06 22:25:23'
p149
F385.08999999999997
tp150
a(S'2c:b0:5d:87:37:88'
p151
S'99.185.58.166'
p152
S'4.71.251.153'
p153
S'2012-10-07 02:45:41'
p154
F314.04000000000002
tp155
a(S'2c:b0:5d:87:37:88'
p156
S'99.185.58.166'
p157
S'4.71.251.166'
p158
S'2012-10-07 08:05:11'
p159
F701.64999999999998
tp160
a(S'2c:b0:5d:87:37:88'
p161
S'99.185.58.166'
p162
S'4.71.251.153'
p163
S'2012-10-07 10:24:35'
p164
F578.14999999999998
tp165
a(S'2c:b0:5d:87:37:88'
p166
S'99.185.58.166'
p167
S'4.71.251.166'
p168
S'2012-10-07 14:44:32'
p169
F234.16
tp170
a(S'2c:b0:5d:87:37:88'
p171
S'99.185.58.166'
p172
S'4.71.251.153'
p173
S'2012-10-07 19:05:08'
p174
F499.72000000000003
tp175
a(S'2c:b0:5d:87:37:88'
p176
S'99.185.58.166'
p177
S'4.71.251.166'
p178
S'2012-10-07 23:24:11'
p179
F508.41000000000003
tp180
a(S'2c:b0:5d:87:37:88'
p181
S'99.185.58.166'
p182
S'4.71.251.153'
p183
S'2012-10-08 03:44:23'
p184
F505.19
tp185
a(S'2c:b0:5d:87:37:88'
p186
S'99.185.58.166'
p187
S'4.71.251.153'
p188
S'2012-10-08 08:04:25'
p189
F355.73000000000002
tp190
a(S'2c:b0:5d:87:37:88'
p191
S'99.185.58.166'
p192
S'4.71.251.153'
p193
S'2012-10-08 10:24:33'
p194
F278.20999999999998
tp195
a(S'2c:b0:5d:87:37:88'
p196
S'99.185.58.166'
p197
S'4.71.251.166'
p198
S'2012-10-08 14:44:02'
p199
F619.86000000000001
tp200
a(S'2c:b0:5d:87:37:88'
p201
S'99.185.58.166'
p202
S'4.71.251.166'
p203
S'2012-10-08 19:04:30'
p204
F810.62
tp205
a(S'2c:b0:5d:87:37:88'
p206
S'99.185.58.166'
p207
S'4.71.251.153'
p208
S'2012-10-08 23:24:12'
p209
F648.19000000000005
tp210
a(S'2c:b0:5d:87:37:88'
p211
S'99.185.58.166'
p212
S'4.71.210.204'
p213
S'2012-10-09 03:44:24'
p214
F799.30999999999995
tp215
a(S'2c:b0:5d:87:37:88'
p216
S'99.185.58.166'
p217
S'4.71.210.217'
p218
S'2012-10-09 09:04:08'
p219
F771.72000000000003
tp220
a(S'2c:b0:5d:87:37:88'
p221
S'99.185.58.166'
p222
S'4.71.210.204'
p223
S'2012-10-09 11:24:27'
p224
F880.88
tp225
a(S'2c:b0:5d:87:37:88'
p226
S'99.185.58.166'
p227
S'4.71.210.204'
p228
S'2012-10-09 15:44:16'
p229
F605.92999999999995
tp230
a(S'2c:b0:5d:87:37:88'
p231
S'99.185.58.166'
p232
S'4.71.210.217'
p233
S'2012-10-09 21:03:28'
p234
F805.72000000000003
tp235
a(S'2c:b0:5d:87:37:88'
p236
S'99.185.58.166'
p237
S'4.71.210.217'
p238
S'2012-10-10 01:23:05'
p239
F745.07000000000005
tp240
a(S'2c:b0:5d:87:37:88'
p241
S'99.185.58.166'
p242
S'4.71.210.204'
p243
S'2012-10-10 05:43:16'
p244
F898.78999999999996
tp245
a(S'2c:b0:5d:87:37:88'
p246
S'99.185.58.166'
p247
S'4.71.210.204'
p248
S'2012-10-10 21:03:51'
p249
F617.26999999999998
tp250
a(S'2c:b0:5d:87:37:88'
p251
S'99.185.58.166'
p252
S'4.71.210.217'
p253
S'2012-10-11 01:23:14'
p254
F417.13999999999999
tp255
a(S'2c:b0:5d:87:37:88'
p256
S'99.185.58.166'
p257
S'4.71.210.204'
p258
S'2012-10-11 05:43:23'
p259
F388.51999999999998
tp260
a(S'2c:b0:5d:87:37:88'
p261
S'99.185.58.166'
p262
S'4.71.210.204'
p263
S'2012-10-11 10:03:05'
p264
F955.12
tp265
a(S'2c:b0:5d:87:37:88'
p266
S'99.185.58.166'
p267
S'4.71.210.217'
p268
S'2012-10-11 12:23:13'
p269
F1032.6900000000001
tp270
a(S'2c:b0:5d:87:37:88'
p271
S'99.185.58.166'
p272
S'4.71.210.204'
p273
S'2012-10-11 16:43:03'
p274
F1144.6700000000001
tp275
a(S'2c:b0:5d:87:37:88'
p276
S'99.185.58.166'
p277
S'4.71.210.217'
p278
S'2012-10-11 21:03:15'
p279
F982.29999999999995
tp280
a(S'2c:b0:5d:87:37:88'
p281
S'99.185.58.166'
p282
S'4.71.210.204'
p283
S'2012-10-12 01:23:03'
p284
F887.62
tp285
a(S'2c:b0:5d:87:37:88'
p286
S'99.185.58.166'
p287
S'4.71.210.217'
p288
S'2012-10-12 05:43:07'
p289
F920.37
tp290
a(S'2c:b0:5d:87:37:88'
p291
S'99.185.58.166'
p292
S'4.71.210.217'
p293
S'2012-10-12 10:03:09'
p294
F1008.05
tp295
a(S'2c:b0:5d:87:37:88'
p296
S'99.185.58.166'
p297
S'4.71.210.217'
p298
S'2012-10-12 12:32:18'
p299
F867.32000000000005
tp300
a(S'2c:b0:5d:87:37:88'
p301
S'99.185.58.166'
p302
S'4.71.210.204'
p303
S'2012-10-12 16:52:29'
p304
F418.24000000000001
tp305
a(S'2c:b0:5d:87:37:88'
p306
S'99.185.58.166'
p307
S'4.71.210.217'
p308
S'2012-10-12 21:13:01'
p309
F578.22000000000003
tp310
a(S'2c:b0:5d:87:37:88'
p311
S'99.185.58.166'
p312
S'4.71.210.217'
p313
S'2012-10-13 01:32:19'
p314
F398.02999999999997
tp315
a(S'2c:b0:5d:87:37:88'
p316
S'99.185.58.166'
p317
S'4.71.210.204'
p318
S'2012-10-13 05:52:08'
p319
F679.52999999999997
tp320
a(S'2c:b0:5d:87:37:88'
p321
S'99.185.58.166'
p322
S'4.71.210.217'
p323
S'2012-10-13 10:12:09'
p324
F839.29999999999995
tp325
a(S'2c:b0:5d:87:37:88'
p326
S'99.185.58.166'
p327
S'4.71.210.217'
p328
S'2012-10-13 19:52:12'
p329
F764.36000000000001
tp330
a(S'2c:b0:5d:87:37:88'
p331
S'99.185.58.166'
p332
S'4.71.210.204'
p333
S'2012-10-14 00:13:35'
p334
F560.92999999999995
tp335
a(S'2c:b0:5d:87:37:88'
p336
S'99.185.58.166'
p337
S'4.71.210.217'
p338
S'2012-10-14 04:32:10'
p339
F410.41000000000003
tp340
a(S'2c:b0:5d:87:37:88'
p341
S'99.185.58.166'
p342
S'4.71.210.204'
p343
S'2012-10-14 08:52:14'
p344
F483.55000000000001
tp345
a(S'2c:b0:5d:87:37:88'
p346
S'99.185.58.166'
p347
S'4.71.210.217'
p348
S'2012-10-14 13:12:17'
p349
F320.99000000000001
tp350
a(S'2c:b0:5d:87:37:88'
p351
S'99.185.58.166'
p352
S'4.71.210.217'
p353
S'2012-10-14 15:32:41'
p354
F329.87
tp355
a(S'2c:b0:5d:87:37:88'
p356
S'99.185.58.166'
p357
S'4.71.210.204'
p358
S'2012-10-14 19:52:13'
p359
F317.87
tp360
a.