(lp0
(S'2c:b0:5d:82:f4:1a'
p1
S'74.63.50.41'
p2
S'69.86.151.141'
p3
S'2012-10-03 10:52:37'
p4
F9725.0100000000002
tp5
a(S'2c:b0:5d:82:f4:1a'
p6
S'74.63.50.41'
p7
S'69.86.151.141'
p8
S'2012-10-03 15:12:35'
p9
F9723.7800000000007
tp10
a(S'2c:b0:5d:82:f4:1a'
p11
S'74.63.50.25'
p12
S'69.86.151.141'
p13
S'2012-10-03 19:32:37'
p14
F9726.2299999999996
tp15
a(S'2c:b0:5d:82:f4:1a'
p16
S'74.63.50.12'
p17
S'69.86.151.141'
p18
S'2012-10-03 23:53:13'
p19
F7584.7700000000004
tp20
a(S'2c:b0:5d:82:f4:1a'
p21
S'74.63.50.41'
p22
S'69.86.151.141'
p23
S'2012-10-04 04:12:36'
p24
F8825.6299999999992
tp25
a(S'2c:b0:5d:82:f4:1a'
p26
S'74.63.50.41'
p27
S'69.86.151.141'
p28
S'2012-10-04 08:32:37'
p29
F9775.9500000000007
tp30
a(S'2c:b0:5d:82:f4:1a'
p31
S'74.63.50.12'
p32
S'69.86.151.141'
p33
S'2012-10-04 10:52:35'
p34
F9740.6399999999994
tp35
a(S'2c:b0:5d:82:f4:1a'
p36
S'74.63.50.12'
p37
S'69.86.151.141'
p38
S'2012-10-04 15:12:37'
p39
F9727.6000000000004
tp40
a(S'2c:b0:5d:82:f4:1a'
p41
S'74.63.50.12'
p42
S'69.86.151.141'
p43
S'2012-10-04 19:32:37'
p44
F9715.3899999999994
tp45
a(S'2c:b0:5d:82:f4:1a'
p46
S'74.63.50.12'
p47
S'69.86.151.141'
p48
S'2012-10-04 23:52:54'
p49
F9720.8500000000004
tp50
a(S'2c:b0:5d:82:f4:1a'
p51
S'74.63.50.41'
p52
S'69.86.151.141'
p53
S'2012-10-05 04:12:44'
p54
F9538.9400000000005
tp55
a(S'2c:b0:5d:82:f4:1a'
p56
S'74.63.50.41'
p57
S'69.86.151.141'
p58
S'2012-10-05 08:31:38'
p59
F9739.0900000000001
tp60
a(S'2c:b0:5d:82:f4:1a'
p61
S'74.63.50.41'
p62
S'69.86.151.141'
p63
S'2012-10-05 10:52:36'
p64
F9660.2000000000007
tp65
a(S'2c:b0:5d:82:f4:1a'
p66
S'74.63.50.41'
p67
S'69.86.151.141'
p68
S'2012-10-05 15:11:36'
p69
F9726.7800000000007
tp70
a(S'2c:b0:5d:82:f4:1a'
p71
S'74.63.50.41'
p72
S'69.86.151.141'
p73
S'2012-10-05 19:31:37'
p74
F9719.4699999999993
tp75
a(S'2c:b0:5d:82:f4:1a'
p76
S'74.63.50.25'
p77
S'69.86.151.141'
p78
S'2012-10-05 23:52:00'
p79
F9651.0300000000007
tp80
a(S'2c:b0:5d:82:f4:1a'
p81
S'74.63.50.41'
p82
S'69.86.151.141'
p83
S'2012-10-06 04:11:43'
p84
F9735.6800000000003
tp85
a(S'2c:b0:5d:82:f4:1a'
p86
S'74.63.50.41'
p87
S'69.86.151.141'
p88
S'2012-10-06 08:31:37'
p89
F9765.7900000000009
tp90
a(S'2c:b0:5d:82:f4:1a'
p91
S'74.63.50.12'
p92
S'69.86.151.141'
p93
S'2012-10-06 10:51:38'
p94
F9679.1399999999994
tp95
a(S'2c:b0:5d:82:f4:1a'
p96
S'74.63.50.12'
p97
S'69.86.151.141'
p98
S'2012-10-06 15:11:37'
p99
F9721.9200000000001
tp100
a(S'2c:b0:5d:82:f4:1a'
p101
S'74.63.50.25'
p102
S'69.86.151.141'
p103
S'2012-10-06 19:31:41'
p104
F9709.8400000000001
tp105
a(S'2c:b0:5d:82:f4:1a'
p106
S'74.63.50.25'
p107
S'69.86.151.141'
p108
S'2012-10-06 23:51:52'
p109
F9715.2999999999993
tp110
a(S'2c:b0:5d:82:f4:1a'
p111
S'74.63.50.41'
p112
S'69.86.151.141'
p113
S'2012-10-07 04:11:37'
p114
F9730.5
tp115
a(S'2c:b0:5d:82:f4:1a'
p116
S'74.63.50.25'
p117
S'69.86.151.141'
p118
S'2012-10-07 08:31:36'
p119
F9725.3500000000004
tp120
a(S'2c:b0:5d:82:f4:1a'
p121
S'74.63.50.12'
p122
S'69.86.151.141'
p123
S'2012-10-07 10:51:37'
p124
F9720.2099999999991
tp125
a(S'2c:b0:5d:82:f4:1a'
p126
S'74.63.50.41'
p127
S'69.86.151.141'
p128
S'2012-10-07 15:11:44'
p129
F7971.5500000000002
tp130
a(S'2c:b0:5d:82:f4:1a'
p131
S'74.63.50.25'
p132
S'69.86.151.141'
p133
S'2012-10-07 19:31:37'
p134
F9723.0400000000009
tp135
a(S'2c:b0:5d:82:f4:1a'
p136
S'74.63.50.41'
p137
S'69.86.151.141'
p138
S'2012-10-07 23:52:01'
p139
F9738.0300000000007
tp140
a(S'2c:b0:5d:82:f4:1a'
p141
S'74.63.50.25'
p142
S'69.86.151.141'
p143
S'2012-10-08 04:11:36'
p144
F9471.3700000000008
tp145
a(S'2c:b0:5d:82:f4:1a'
p146
S'74.63.50.41'
p147
S'69.86.151.141'
p148
S'2012-10-08 08:31:37'
p149
F9725.6900000000005
tp150
a(S'2c:b0:5d:82:f4:1a'
p151
S'74.63.50.12'
p152
S'69.86.151.141'
p153
S'2012-10-08 10:51:37'
p154
F9721.9300000000003
tp155
a(S'2c:b0:5d:82:f4:1a'
p156
S'74.63.50.12'
p157
S'69.86.151.141'
p158
S'2012-10-08 15:11:36'
p159
F9730.5400000000009
tp160
a(S'2c:b0:5d:82:f4:1a'
p161
S'74.63.50.12'
p162
S'69.86.151.141'
p163
S'2012-10-08 22:31:45'
p164
F6977.4799999999996
tp165
a(S'2c:b0:5d:82:f4:1a'
p166
S'74.63.50.12'
p167
S'69.86.151.141'
p168
S'2012-10-09 02:51:52'
p169
F8800.7099999999991
tp170
a(S'2c:b0:5d:82:f4:1a'
p171
S'74.63.50.25'
p172
S'69.86.151.141'
p173
S'2012-10-09 07:11:44'
p174
F9732.2900000000009
tp175
a(S'2c:b0:5d:82:f4:1a'
p176
S'74.63.50.12'
p177
S'69.86.151.141'
p178
S'2012-10-09 11:31:51'
p179
F9740.3500000000004
tp180
a(S'2c:b0:5d:82:f4:1a'
p181
S'74.63.50.12'
p182
S'69.86.151.141'
p183
S'2012-10-09 13:51:42'
p184
F9763.2700000000004
tp185
a(S'2c:b0:5d:82:f4:1a'
p186
S'74.63.50.25'
p187
S'69.86.151.141'
p188
S'2012-10-09 18:11:42'
p189
F9728.0699999999997
tp190
a(S'2c:b0:5d:82:f4:1a'
p191
S'74.63.50.25'
p192
S'69.86.151.141'
p193
S'2012-10-09 22:31:45'
p194
F9604.6000000000004
tp195
a(S'2c:b0:5d:82:f4:1a'
p196
S'74.63.50.12'
p197
S'69.86.151.141'
p198
S'2012-10-10 02:52:02'
p199
F9692.1299999999992
tp200
a(S'2c:b0:5d:82:f4:1a'
p201
S'74.63.50.12'
p202
S'69.86.151.141'
p203
S'2012-10-10 07:11:46'
p204
F9742.3500000000004
tp205
a(S'2c:b0:5d:82:f4:1a'
p206
S'74.63.50.25'
p207
S'69.86.151.141'
p208
S'2012-10-10 22:31:57'
p209
F16006.5
tp210
a(S'2c:b0:5d:82:f4:1a'
p211
S'74.63.50.41'
p212
S'69.86.151.141'
p213
S'2012-10-11 02:53:03'
p214
F9169.6000000000004
tp215
a(S'2c:b0:5d:82:f4:1a'
p216
S'74.63.50.12'
p217
S'69.86.151.141'
p218
S'2012-10-11 07:11:43'
p219
F9722.6399999999994
tp220
a(S'2c:b0:5d:82:f4:1a'
p221
S'74.63.50.12'
p222
S'69.86.151.141'
p223
S'2012-10-11 11:31:44'
p224
F9734.9200000000001
tp225
a(S'2c:b0:5d:82:f4:1a'
p226
S'74.63.50.41'
p227
S'69.86.151.141'
p228
S'2012-10-11 13:51:42'
p229
F9727.0100000000002
tp230
a(S'2c:b0:5d:82:f4:1a'
p231
S'74.63.50.25'
p232
S'69.86.151.141'
p233
S'2012-10-11 18:12:00'
p234
F16198.200000000001
tp235
a(S'2c:b0:5d:82:f4:1a'
p236
S'74.63.50.25'
p237
S'69.86.151.141'
p238
S'2012-10-11 22:31:43'
p239
F9723.8099999999995
tp240
a(S'2c:b0:5d:82:f4:1a'
p241
S'74.63.50.12'
p242
S'69.86.151.141'
p243
S'2012-10-12 02:52:09'
p244
F9718.4400000000005
tp245
a(S'2c:b0:5d:82:f4:1a'
p246
S'74.63.50.25'
p247
S'69.86.151.141'
p248
S'2012-10-12 11:31:45'
p249
F9971.7000000000007
tp250
a(S'2c:b0:5d:82:f4:1a'
p251
S'74.63.50.12'
p252
S'69.86.151.141'
p253
S'2012-10-12 13:51:52'
p254
F9720.6599999999999
tp255
a(S'2c:b0:5d:82:f4:1a'
p256
S'74.63.50.12'
p257
S'69.86.151.109'
p258
S'2012-10-14 05:36:52'
p259
F16055.299999999999
tp260
a(S'2c:b0:5d:82:f4:1a'
p261
S'74.63.50.41'
p262
S'69.86.151.109'
p263
S'2012-10-14 09:56:45'
p264
F9729.7299999999996
tp265
a(S'2c:b0:5d:82:f4:1a'
p266
S'74.63.50.41'
p267
S'69.86.151.109'
p268
S'2012-10-14 14:16:44'
p269
F9732.5599999999995
tp270
a(S'2c:b0:5d:82:f4:1a'
p271
S'74.63.50.25'
p272
S'69.86.151.109'
p273
S'2012-10-14 18:37:38'
p274
F9720.8899999999994
tp275
a(S'2c:b0:5d:82:f4:1a'
p276
S'74.63.50.12'
p277
S'69.86.151.109'
p278
S'2012-10-14 22:56:44'
p279
F9722.5300000000007
tp280
a.