(lp0
(S'2c:b0:5d:87:3b:30'
p1
S'68.34.206.216'
p2
S'216.156.197.172'
p3
S'2012-10-02 03:19:38'
p4
F4202.7799999999997
tp5
a(S'2c:b0:5d:87:3b:30'
p6
S'68.34.206.216'
p7
S'216.156.197.146'
p8
S'2012-10-02 07:39:50'
p9
F4183.8100000000004
tp10
a(S'2c:b0:5d:87:3b:30'
p11
S'68.34.206.216'
p12
S'216.156.197.159'
p13
S'2012-10-02 20:18:40'
p14
F4162.0
tp15
a(S'2c:b0:5d:87:3b:30'
p16
S'68.34.206.216'
p17
S'216.156.197.172'
p18
S'2012-10-03 03:38:40'
p19
F4201.2700000000004
tp20
a(S'2c:b0:5d:87:3b:30'
p21
S'68.34.206.216'
p22
S'216.156.197.159'
p23
S'2012-10-03 09:58:39'
p24
F4188.1099999999997
tp25
a(S'2c:b0:5d:87:3b:30'
p26
S'68.34.206.216'
p27
S'216.156.197.146'
p28
S'2012-10-03 14:18:38'
p29
F4226.0200000000004
tp30
a(S'2c:b0:5d:87:3b:30'
p31
S'68.34.206.216'
p32
S'216.156.197.146'
p33
S'2012-10-03 16:38:50'
p34
F4211.2799999999997
tp35
a(S'2c:b0:5d:87:3b:30'
p36
S'68.34.206.216'
p37
S'216.156.197.172'
p38
S'2012-10-03 20:58:44'
p39
F4191.6300000000001
tp40
a(S'2c:b0:5d:87:3b:30'
p41
S'68.34.206.216'
p42
S'216.156.197.146'
p43
S'2012-10-04 01:18:42'
p44
F4194.8999999999996
tp45
a(S'2c:b0:5d:87:3b:30'
p46
S'68.34.206.216'
p47
S'216.156.197.146'
p48
S'2012-10-04 05:38:41'
p49
F4221.5299999999997
tp50
a(S'2c:b0:5d:87:3b:30'
p51
S'68.34.206.216'
p52
S'216.156.197.146'
p53
S'2012-10-04 09:58:44'
p54
F4172.9700000000003
tp55
a(S'2c:b0:5d:87:3b:30'
p56
S'68.34.206.216'
p57
S'216.156.197.146'
p58
S'2012-10-04 14:18:37'
p59
F4186.0600000000004
tp60
a(S'2c:b0:5d:87:3b:30'
p61
S'68.34.206.216'
p62
S'216.156.197.146'
p63
S'2012-10-04 16:38:57'
p64
F4116.4300000000003
tp65
a(S'2c:b0:5d:87:3b:30'
p66
S'68.34.206.216'
p67
S'216.156.197.146'
p68
S'2012-10-04 20:58:44'
p69
F4301.1800000000003
tp70
a(S'2c:b0:5d:87:3b:30'
p71
S'68.34.206.216'
p72
S'216.156.197.172'
p73
S'2012-10-05 03:18:43'
p74
F4228.0299999999997
tp75
a(S'2c:b0:5d:87:3b:30'
p76
S'68.34.206.216'
p77
S'216.156.197.146'
p78
S'2012-10-05 08:38:42'
p79
F4196.3100000000004
tp80
a(S'2c:b0:5d:87:3b:30'
p81
S'68.34.206.216'
p82
S'216.156.197.172'
p83
S'2012-10-05 12:58:42'
p84
F4215.0600000000004
tp85
a(S'2c:b0:5d:87:3b:30'
p86
S'68.34.206.216'
p87
S'216.156.197.146'
p88
S'2012-10-05 17:18:42'
p89
F4122.4300000000003
tp90
a(S'2c:b0:5d:87:3b:30'
p91
S'68.34.206.216'
p92
S'216.156.197.172'
p93
S'2012-10-05 20:38:57'
p94
F4219.5900000000001
tp95
a(S'2c:b0:5d:87:3b:30'
p96
S'68.34.206.216'
p97
S'216.156.197.159'
p98
S'2012-10-06 04:18:43'
p99
F4153.3900000000003
tp100
a(S'2c:b0:5d:87:3b:30'
p101
S'68.34.206.216'
p102
S'216.156.197.146'
p103
S'2012-10-06 09:38:46'
p104
F4175.8000000000002
tp105
a(S'2c:b0:5d:87:3b:30'
p106
S'68.34.206.216'
p107
S'216.156.197.172'
p108
S'2012-10-06 14:58:43'
p109
F4182.4700000000003
tp110
a(S'2c:b0:5d:87:3b:30'
p111
S'68.34.206.216'
p112
S'216.156.197.146'
p113
S'2012-10-06 19:18:44'
p114
F4161.2299999999996
tp115
a(S'2c:b0:5d:87:3b:30'
p116
S'68.34.206.216'
p117
S'216.156.197.146'
p118
S'2012-10-06 23:38:42'
p119
F4210.71
tp120
a(S'2c:b0:5d:87:3b:30'
p121
S'68.34.206.216'
p122
S'216.156.197.172'
p123
S'2012-10-07 01:58:55'
p124
F4159.1300000000001
tp125
a(S'2c:b0:5d:87:3b:30'
p126
S'68.34.206.216'
p127
S'216.156.197.146'
p128
S'2012-10-07 06:18:42'
p129
F4183.6999999999998
tp130
a(S'2c:b0:5d:87:3b:30'
p131
S'68.34.206.216'
p132
S'216.156.197.146'
p133
S'2012-10-07 10:38:45'
p134
F4150.5699999999997
tp135
a(S'2c:b0:5d:87:3b:30'
p136
S'68.34.206.216'
p137
S'216.156.197.159'
p138
S'2012-10-07 14:58:40'
p139
F4187.2700000000004
tp140
a(S'2c:b0:5d:87:3b:30'
p141
S'68.34.206.216'
p142
S'216.156.197.159'
p143
S'2012-10-07 19:18:43'
p144
F4218.8699999999999
tp145
a(S'2c:b0:5d:87:3b:30'
p146
S'68.34.206.216'
p147
S'216.156.197.172'
p148
S'2012-10-08 00:58:45'
p149
F3684.3200000000002
tp150
a(S'2c:b0:5d:87:3b:30'
p151
S'68.34.206.216'
p152
S'216.156.197.172'
p153
S'2012-10-08 03:18:58'
p154
F4219.7399999999998
tp155
a(S'2c:b0:5d:87:3b:30'
p156
S'68.34.206.216'
p157
S'216.156.197.146'
p158
S'2012-10-08 07:38:44'
p159
F4246.8100000000004
tp160
a(S'2c:b0:5d:87:3b:30'
p161
S'68.34.206.216'
p162
S'216.156.197.146'
p163
S'2012-10-08 11:58:46'
p164
F4166.6700000000001
tp165
a(S'2c:b0:5d:87:3b:30'
p166
S'68.34.206.216'
p167
S'216.156.197.159'
p168
S'2012-10-08 16:18:41'
p169
F4181.9700000000003
tp170
a(S'2c:b0:5d:87:3b:30'
p171
S'68.34.206.216'
p172
S'216.156.197.146'
p173
S'2012-10-08 21:27:43'
p174
F4181.3500000000004
tp175
a(S'2c:b0:5d:87:3b:30'
p176
S'68.34.206.216'
p177
S'216.156.197.172'
p178
S'2012-10-09 04:47:44'
p179
F4144.2200000000003
tp180
a(S'2c:b0:5d:87:3b:30'
p181
S'68.34.206.216'
p182
S'216.156.197.159'
p183
S'2012-10-09 08:07:57'
p184
F4198.9799999999996
tp185
a(S'2c:b0:5d:87:3b:30'
p186
S'68.34.206.216'
p187
S'216.156.197.146'
p188
S'2012-10-09 12:27:44'
p189
F4166.2700000000004
tp190
a(S'2c:b0:5d:87:3b:30'
p191
S'68.34.206.216'
p192
S'216.156.197.146'
p193
S'2012-10-09 16:47:34'
p194
F4180.6400000000003
tp195
a(S'2c:b0:5d:87:3b:30'
p196
S'68.34.206.216'
p197
S'216.156.197.146'
p198
S'2012-10-09 21:07:41'
p199
F4201.5500000000002
tp200
a(S'2c:b0:5d:87:3b:30'
p201
S'68.34.206.216'
p202
S'216.156.197.172'
p203
S'2012-10-10 01:27:42'
p204
F4196.8900000000003
tp205
a(S'2c:b0:5d:87:3b:30'
p206
S'68.34.206.216'
p207
S'216.156.197.172'
p208
S'2012-10-10 05:47:44'
p209
F4177.0799999999999
tp210
a(S'2c:b0:5d:87:3b:30'
p211
S'68.34.206.216'
p212
S'216.156.197.172'
p213
S'2012-10-10 21:07:46'
p214
F4181.7700000000004
tp215
a(S'2c:b0:5d:87:3b:30'
p216
S'68.34.206.216'
p217
S'216.156.197.146'
p218
S'2012-10-11 01:27:44'
p219
F4176.8599999999997
tp220
a(S'2c:b0:5d:87:3b:30'
p221
S'68.34.206.216'
p222
S'216.156.197.172'
p223
S'2012-10-11 05:47:44'
p224
F4238.1199999999999
tp225
a(S'2c:b0:5d:87:3b:30'
p226
S'68.34.206.216'
p227
S'216.156.197.159'
p228
S'2012-10-11 08:07:56'
p229
F4189.3100000000004
tp230
a(S'2c:b0:5d:87:3b:30'
p231
S'68.34.206.216'
p232
S'216.156.197.159'
p233
S'2012-10-11 12:27:42'
p234
F4192.6099999999997
tp235
a(S'2c:b0:5d:87:3b:30'
p236
S'68.34.206.216'
p237
S'216.156.197.159'
p238
S'2012-10-11 17:47:45'
p239
F4225.3800000000001
tp240
a(S'2c:b0:5d:87:3b:30'
p241
S'68.34.206.216'
p242
S'216.156.197.146'
p243
S'2012-10-11 22:07:42'
p244
F4199.54
tp245
a(S'2c:b0:5d:87:3b:30'
p246
S'68.34.206.216'
p247
S'216.156.197.146'
p248
S'2012-10-12 02:27:42'
p249
F4198.3599999999997
tp250
a(S'2c:b0:5d:87:3b:30'
p251
S'68.34.206.216'
p252
S'216.156.197.146'
p253
S'2012-10-12 06:47:44'
p254
F4262.3900000000003
tp255
a(S'2c:b0:5d:87:3b:30'
p256
S'68.34.206.216'
p257
S'216.156.197.146'
p258
S'2012-10-12 09:07:57'
p259
F4184.4700000000003
tp260
a(S'2c:b0:5d:87:3b:30'
p261
S'68.34.206.216'
p262
S'216.156.197.159'
p263
S'2012-10-12 13:27:43'
p264
F4177.1599999999999
tp265
a(S'2c:b0:5d:87:3b:30'
p266
S'68.34.206.216'
p267
S'216.156.197.159'
p268
S'2012-10-12 17:47:46'
p269
F4189.7600000000002
tp270
a(S'2c:b0:5d:87:3b:30'
p271
S'68.34.206.216'
p272
S'216.156.197.172'
p273
S'2012-10-13 02:27:42'
p274
F4164.1099999999997
tp275
a(S'2c:b0:5d:87:3b:30'
p276
S'68.34.206.216'
p277
S'216.156.197.159'
p278
S'2012-10-13 09:07:57'
p279
F4168.71
tp280
a(S'2c:b0:5d:87:3b:30'
p281
S'68.34.206.216'
p282
S'216.156.197.159'
p283
S'2012-10-13 20:04:56'
p284
F4175.29
tp285
a(S'2c:b0:5d:87:3b:30'
p286
S'68.34.206.216'
p287
S'216.156.197.146'
p288
S'2012-10-14 00:24:44'
p289
F4208.9499999999998
tp290
a(S'2c:b0:5d:87:3b:30'
p291
S'68.34.206.216'
p292
S'216.156.197.172'
p293
S'2012-10-14 05:51:11'
p294
F0.0
tp295
a(S'2c:b0:5d:87:3b:30'
p296
S'68.34.206.216'
p297
S'216.156.197.159'
p298
S'2012-10-14 11:10:42'
p299
F4238.04
tp300
a(S'2c:b0:5d:87:3b:30'
p301
S'68.34.206.216'
p302
S'216.156.197.159'
p303
S'2012-10-14 16:20:46'
p304
F4179.75
tp305
a(S'2c:b0:5d:87:3b:30'
p306
S'68.34.206.216'
p307
S'216.156.197.172'
p308
S'2012-10-14 20:40:42'
p309
F4191.5799999999999
tp310
a.