(lp0
(S'2c:b0:5d:a0:c2:26'
p1
S'143.215.207.87'
p2
S'143.215.131.173'
p3
S'2012-10-02 07:11:28'
p4
F195986.0
tp5
a(S'2c:b0:5d:a0:c2:26'
p6
S'143.215.207.87'
p7
S'143.215.131.173'
p8
S'2012-10-02 11:31:04'
p9
F198628.0
tp10
a(S'2c:b0:5d:a0:c2:26'
p11
S'143.215.207.87'
p12
S'143.215.131.173'
p13
S'2012-10-02 15:51:04'
p14
F194894.0
tp15
a(S'2c:b0:5d:a0:c2:26'
p16
S'143.215.207.87'
p17
S'143.215.131.173'
p18
S'2012-10-02 18:11:49'
p19
F210478.0
tp20
a(S'2c:b0:5d:a0:c2:26'
p21
S'71.56.92.62'
p22
S'4.71.210.217'
p23
S'2012-10-05 17:54:55'
p24
F6369.0799999999999
tp25
a(S'2c:b0:5d:a0:c2:26'
p26
S'71.56.92.62'
p27
S'4.71.210.217'
p28
S'2012-10-05 22:14:42'
p29
F6248.8500000000004
tp30
a(S'2c:b0:5d:a0:c2:26'
p31
S'71.56.92.62'
p32
S'4.71.210.204'
p33
S'2012-10-06 02:34:45'
p34
F6419.6000000000004
tp35
a(S'2c:b0:5d:a0:c2:26'
p36
S'71.56.92.62'
p37
S'4.71.210.217'
p38
S'2012-10-06 06:54:41'
p39
F6360.0600000000004
tp40
a(S'2c:b0:5d:a0:c2:26'
p41
S'71.56.92.62'
p42
S'4.71.210.204'
p43
S'2012-10-07 02:34:43'
p44
F6336.3100000000004
tp45
a(S'2c:b0:5d:a0:c2:26'
p46
S'71.56.92.62'
p47
S'4.71.210.204'
p48
S'2012-10-07 08:34:54'
p49
F6271.0200000000004
tp50
a(S'2c:b0:5d:a0:c2:26'
p51
S'71.56.92.62'
p52
S'4.71.210.204'
p53
S'2012-10-07 12:54:43'
p54
F6292.54
tp55
a(S'2c:b0:5d:a0:c2:26'
p56
S'71.56.92.62'
p57
S'4.71.210.217'
p58
S'2012-10-07 17:14:43'
p59
F6331.4099999999999
tp60
a(S'2c:b0:5d:a0:c2:26'
p61
S'71.56.92.62'
p62
S'4.71.210.204'
p63
S'2012-10-07 21:34:39'
p64
F6358.0799999999999
tp65
a(S'2c:b0:5d:a0:c2:26'
p66
S'71.56.92.62'
p67
S'4.71.210.204'
p68
S'2012-10-08 01:54:40'
p69
F6330.7799999999997
tp70
a(S'2c:b0:5d:a0:c2:26'
p71
S'71.56.92.62'
p72
S'4.71.210.217'
p73
S'2012-10-08 06:14:42'
p74
F6373.4399999999996
tp75
a(S'2c:b0:5d:a0:c2:26'
p76
S'71.56.92.62'
p77
S'4.71.210.204'
p78
S'2012-10-08 08:34:54'
p79
F6344.46
tp80
a(S'2c:b0:5d:a0:c2:26'
p81
S'71.56.92.62'
p82
S'4.71.210.204'
p83
S'2012-10-08 12:54:43'
p84
F6368.1099999999997
tp85
a(S'2c:b0:5d:a0:c2:26'
p86
S'71.56.92.62'
p87
S'4.71.210.204'
p88
S'2012-10-08 17:14:43'
p89
F6338.3599999999997
tp90
a(S'2c:b0:5d:a0:c2:26'
p91
S'71.56.92.62'
p92
S'4.71.210.217'
p93
S'2012-10-08 21:34:38'
p94
F6355.3699999999999
tp95
a(S'2c:b0:5d:a0:c2:26'
p96
S'71.56.92.62'
p97
S'4.71.210.217'
p98
S'2012-10-09 01:54:40'
p99
F6355.0600000000004
tp100
a(S'2c:b0:5d:a0:c2:26'
p101
S'71.56.92.62'
p102
S'4.71.210.217'
p103
S'2012-10-09 06:14:42'
p104
F6348.8599999999997
tp105
a(S'2c:b0:5d:a0:c2:26'
p106
S'71.56.92.62'
p107
S'4.71.210.204'
p108
S'2012-10-09 08:34:56'
p109
F6362.1800000000003
tp110
a(S'2c:b0:5d:a0:c2:26'
p111
S'71.56.92.62'
p112
S'4.71.210.204'
p113
S'2012-10-09 12:54:41'
p114
F6339.29
tp115
a(S'2c:b0:5d:a0:c2:26'
p116
S'71.56.92.62'
p117
S'4.71.210.217'
p118
S'2012-10-09 17:14:42'
p119
F6314.3900000000003
tp120
a(S'2c:b0:5d:a0:c2:26'
p121
S'71.56.92.62'
p122
S'4.71.210.217'
p123
S'2012-10-09 22:34:40'
p124
F6349.1599999999999
tp125
a(S'2c:b0:5d:a0:c2:26'
p126
S'71.56.92.62'
p127
S'4.71.210.204'
p128
S'2012-10-10 03:03:42'
p129
F6332.0299999999997
tp130
a(S'2c:b0:5d:a0:c2:26'
p131
S'71.56.92.62'
p132
S'4.71.210.217'
p133
S'2012-10-10 07:23:42'
p134
F6363.4799999999996
tp135
a(S'2c:b0:5d:a0:c2:26'
p136
S'71.56.92.62'
p137
S'4.71.210.217'
p138
S'2012-10-10 22:43:42'
p139
F6252.1700000000001
tp140
a(S'2c:b0:5d:a0:c2:26'
p141
S'71.56.92.62'
p142
S'4.71.210.204'
p143
S'2012-10-11 03:03:42'
p144
F6214.46
tp145
a(S'2c:b0:5d:a0:c2:26'
p146
S'71.56.92.62'
p147
S'4.71.210.217'
p148
S'2012-10-11 07:23:41'
p149
F6138.9300000000003
tp150
a(S'2c:b0:5d:a0:c2:26'
p151
S'71.56.92.62'
p152
S'4.71.210.217'
p153
S'2012-10-11 09:43:56'
p154
F6311.8999999999996
tp155
a(S'2c:b0:5d:a0:c2:26'
p156
S'71.56.92.62'
p157
S'4.71.210.204'
p158
S'2012-10-11 14:03:42'
p159
F6333.3299999999999
tp160
a(S'2c:b0:5d:a0:c2:26'
p161
S'71.56.92.62'
p162
S'4.71.210.217'
p163
S'2012-10-11 18:23:43'
p164
F6401.0600000000004
tp165
a(S'2c:b0:5d:a0:c2:26'
p166
S'71.56.92.62'
p167
S'4.71.210.204'
p168
S'2012-10-11 22:43:41'
p169
F6340.9499999999998
tp170
a(S'2c:b0:5d:a0:c2:26'
p171
S'71.56.92.62'
p172
S'4.71.210.217'
p173
S'2012-10-12 03:03:42'
p174
F6395.5299999999997
tp175
a(S'2c:b0:5d:a0:c2:26'
p176
S'71.56.92.62'
p177
S'4.71.210.204'
p178
S'2012-10-12 07:23:42'
p179
F6126.8100000000004
tp180
a(S'2c:b0:5d:a0:c2:26'
p181
S'71.56.92.62'
p182
S'4.71.210.204'
p183
S'2012-10-12 09:43:55'
p184
F6266.6800000000003
tp185
a(S'2c:b0:5d:a0:c2:26'
p186
S'71.56.92.62'
p187
S'4.71.210.204'
p188
S'2012-10-12 14:03:42'
p189
F6374.4700000000003
tp190
a(S'2c:b0:5d:a0:c2:26'
p191
S'71.56.92.62'
p192
S'4.71.210.204'
p193
S'2012-10-12 22:43:41'
p194
F6303.8299999999999
tp195
a(S'2c:b0:5d:a0:c2:26'
p196
S'71.56.92.62'
p197
S'4.71.210.204'
p198
S'2012-10-13 03:03:41'
p199
F6323.71
tp200
a(S'2c:b0:5d:a0:c2:26'
p201
S'71.56.92.62'
p202
S'4.71.210.217'
p203
S'2012-10-13 07:23:41'
p204
F6387.1999999999998
tp205
a(S'2c:b0:5d:a0:c2:26'
p206
S'71.56.92.62'
p207
S'4.71.210.204'
p208
S'2012-10-13 09:43:54'
p209
F6350.0699999999997
tp210
a(S'2c:b0:5d:a0:c2:26'
p211
S'71.56.92.62'
p212
S'4.71.210.217'
p213
S'2012-10-13 14:03:41'
p214
F6321.5799999999999
tp215
a(S'2c:b0:5d:a0:c2:26'
p216
S'71.56.92.62'
p217
S'4.71.210.204'
p218
S'2012-10-13 20:43:44'
p219
F6323.54
tp220
a(S'2c:b0:5d:a0:c2:26'
p221
S'71.56.92.62'
p222
S'4.71.210.204'
p223
S'2012-10-14 01:03:40'
p224
F6332.3000000000002
tp225
a(S'2c:b0:5d:a0:c2:26'
p226
S'71.56.92.62'
p227
S'4.71.210.204'
p228
S'2012-10-14 05:23:41'
p229
F6338.7299999999996
tp230
a(S'2c:b0:5d:a0:c2:26'
p231
S'71.56.92.62'
p232
S'4.71.210.217'
p233
S'2012-10-14 09:43:41'
p234
F6339.1400000000003
tp235
a(S'2c:b0:5d:a0:c2:26'
p236
S'71.56.92.62'
p237
S'4.71.210.217'
p238
S'2012-10-14 12:03:55'
p239
F6326.5600000000004
tp240
a(S'2c:b0:5d:a0:c2:26'
p241
S'71.56.92.62'
p242
S'4.71.210.204'
p243
S'2012-10-14 16:23:47'
p244
F6335.2700000000004
tp245
a(S'2c:b0:5d:a0:c2:26'
p246
S'71.56.92.62'
p247
S'4.71.210.217'
p248
S'2012-10-14 20:43:43'
p249
F6317.8900000000003
tp250
a.