(lp0
(S'4c:60:de:d0:f7:4b'
p1
S'4.71.254.140'
p2
S'69.94.209.214'
p3
S'2012-10-02 01:29:36'
p4
F93441.100000000006
tp5
a(S'4c:60:de:d0:f7:4b'
p6
S'4.71.254.140'
p7
S'69.94.209.214'
p8
S'2012-10-02 03:49:35'
p9
F99874.0
tp10
a(S'4c:60:de:d0:f7:4b'
p11
S'4.71.254.153'
p12
S'69.94.209.214'
p13
S'2012-10-02 08:09:35'
p14
F95240.399999999994
tp15
a(S'4c:60:de:d0:f7:4b'
p16
S'4.71.254.140'
p17
S'69.94.209.214'
p18
S'2012-10-02 12:29:34'
p19
F95112.5
tp20
a(S'4c:60:de:d0:f7:4b'
p21
S'4.71.254.140'
p22
S'69.94.209.214'
p23
S'2012-10-02 16:49:48'
p24
F95386.0
tp25
a(S'4c:60:de:d0:f7:4b'
p26
S'4.71.254.140'
p27
S'69.94.209.214'
p28
S'2012-10-02 21:09:35'
p29
F95289.399999999994
tp30
a(S'4c:60:de:d0:f7:4b'
p31
S'4.71.254.153'
p32
S'69.94.209.214'
p33
S'2012-10-03 01:29:36'
p34
F102070.0
tp35
a(S'4c:60:de:d0:f7:4b'
p36
S'4.71.254.140'
p37
S'69.94.209.214'
p38
S'2012-10-03 03:49:34'
p39
F95325.5
tp40
a(S'4c:60:de:d0:f7:4b'
p41
S'4.71.254.140'
p42
S'69.94.209.214'
p43
S'2012-10-03 08:09:36'
p44
F93919.699999999997
tp45
a(S'4c:60:de:d0:f7:4b'
p46
S'4.71.254.153'
p47
S'69.94.209.214'
p48
S'2012-10-03 12:29:38'
p49
F95386.800000000003
tp50
a(S'4c:60:de:d0:f7:4b'
p51
S'4.71.254.153'
p52
S'69.94.209.214'
p53
S'2012-10-03 16:49:56'
p54
F102403.0
tp55
a(S'4c:60:de:d0:f7:4b'
p56
S'4.71.254.153'
p57
S'69.94.209.214'
p58
S'2012-10-03 21:09:34'
p59
F95075.699999999997
tp60
a(S'4c:60:de:d0:f7:4b'
p61
S'4.71.254.140'
p62
S'69.94.209.214'
p63
S'2012-10-04 01:29:34'
p64
F95129.399999999994
tp65
a(S'4c:60:de:d0:f7:4b'
p66
S'4.71.254.140'
p67
S'69.94.209.214'
p68
S'2012-10-04 03:49:40'
p69
F93281.300000000003
tp70
a(S'4c:60:de:d0:f7:4b'
p71
S'4.71.254.140'
p72
S'69.94.209.214'
p73
S'2012-10-04 08:09:41'
p74
F94989.399999999994
tp75
a(S'4c:60:de:d0:f7:4b'
p76
S'4.71.254.153'
p77
S'69.94.209.214'
p78
S'2012-10-04 12:29:42'
p79
F99366.800000000003
tp80
a(S'4c:60:de:d0:f7:4b'
p81
S'4.71.254.153'
p82
S'69.94.209.214'
p83
S'2012-10-04 16:49:57'
p84
F95041.399999999994
tp85
a(S'4c:60:de:d0:f7:4b'
p86
S'4.71.254.140'
p87
S'69.94.209.214'
p88
S'2012-10-04 21:09:40'
p89
F94877.100000000006
tp90
a(S'4c:60:de:d0:f7:4b'
p91
S'4.71.254.140'
p92
S'69.94.209.214'
p93
S'2012-10-05 01:29:40'
p94
F95063.600000000006
tp95
a(S'4c:60:de:d0:f7:4b'
p96
S'4.71.254.153'
p97
S'69.94.209.214'
p98
S'2012-10-05 03:49:41'
p99
F94306.899999999994
tp100
a(S'4c:60:de:d0:f7:4b'
p101
S'4.71.254.153'
p102
S'69.94.209.214'
p103
S'2012-10-05 08:09:39'
p104
F95235.199999999997
tp105
a(S'4c:60:de:d0:f7:4b'
p106
S'4.71.254.140'
p107
S'69.94.209.214'
p108
S'2012-10-05 12:29:41'
p109
F93887.800000000003
tp110
a(S'4c:60:de:d0:f7:4b'
p111
S'4.71.254.153'
p112
S'69.94.209.214'
p113
S'2012-10-05 16:49:55'
p114
F95100.300000000003
tp115
a(S'4c:60:de:d0:f7:4b'
p116
S'4.71.254.153'
p117
S'69.94.209.214'
p118
S'2012-10-05 21:09:43'
p119
F94852.5
tp120
a(S'4c:60:de:d0:f7:4b'
p121
S'4.71.254.140'
p122
S'69.94.209.214'
p123
S'2012-10-06 01:29:41'
p124
F95184.300000000003
tp125
a(S'4c:60:de:d0:f7:4b'
p126
S'4.71.254.140'
p127
S'69.94.209.214'
p128
S'2012-10-06 03:49:40'
p129
F94760.5
tp130
a(S'4c:60:de:d0:f7:4b'
p131
S'4.71.254.153'
p132
S'69.94.209.214'
p133
S'2012-10-06 08:09:44'
p134
F95537.100000000006
tp135
a(S'4c:60:de:d0:f7:4b'
p136
S'4.71.254.140'
p137
S'69.94.209.214'
p138
S'2012-10-06 12:29:39'
p139
F95060.699999999997
tp140
a(S'4c:60:de:d0:f7:4b'
p141
S'4.71.254.140'
p142
S'69.94.209.214'
p143
S'2012-10-06 16:49:56'
p144
F94927.699999999997
tp145
a(S'4c:60:de:d0:f7:4b'
p146
S'4.71.254.140'
p147
S'69.94.209.214'
p148
S'2012-10-06 21:09:40'
p149
F95001.300000000003
tp150
a(S'4c:60:de:d0:f7:4b'
p151
S'4.71.254.153'
p152
S'69.94.209.214'
p153
S'2012-10-07 01:29:43'
p154
F94936.100000000006
tp155
a(S'4c:60:de:d0:f7:4b'
p156
S'4.71.254.153'
p157
S'69.94.209.214'
p158
S'2012-10-07 03:49:41'
p159
F90568.899999999994
tp160
a(S'4c:60:de:d0:f7:4b'
p161
S'4.71.254.153'
p162
S'69.94.209.214'
p163
S'2012-10-07 10:11:34'
p164
F0.0
tp165
a(S'4c:60:de:d0:f7:4b'
p166
S'4.71.254.140'
p167
S'69.94.209.214'
p168
S'2012-10-07 16:49:44'
p169
F95269.199999999997
tp170
a(S'4c:60:de:d0:f7:4b'
p171
S'4.71.254.153'
p172
S'69.94.209.214'
p173
S'2012-10-07 21:29:54'
p174
F95428.5
tp175
a(S'4c:60:de:d0:f7:4b'
p176
S'4.71.254.153'
p177
S'69.94.209.214'
p178
S'2012-10-08 01:49:39'
p179
F89397.800000000003
tp180
a(S'4c:60:de:d0:f7:4b'
p181
S'4.71.254.153'
p182
S'69.94.209.214'
p183
S'2012-10-08 06:09:41'
p184
F94930.399999999994
tp185
a(S'4c:60:de:d0:f7:4b'
p186
S'4.71.254.140'
p187
S'69.94.209.214'
p188
S'2012-10-08 08:29:40'
p189
F95279.199999999997
tp190
a(S'4c:60:de:d0:f7:4b'
p191
S'4.71.254.153'
p192
S'69.94.209.214'
p193
S'2012-10-08 12:49:41'
p194
F95234.699999999997
tp195
a(S'4c:60:de:d0:f7:4b'
p196
S'4.71.254.153'
p197
S'69.94.209.214'
p198
S'2012-10-08 17:09:40'
p199
F101753.0
tp200
a(S'4c:60:de:d0:f7:4b'
p201
S'4.71.254.153'
p202
S'69.94.209.214'
p203
S'2012-10-08 21:29:55'
p204
F94945.699999999997
tp205
a(S'4c:60:de:d0:f7:4b'
p206
S'4.71.254.153'
p207
S'69.94.209.214'
p208
S'2012-10-09 01:49:40'
p209
F100978.0
tp210
a(S'4c:60:de:d0:f7:4b'
p211
S'4.71.254.153'
p212
S'69.94.209.214'
p213
S'2012-10-09 06:09:39'
p214
F95071.300000000003
tp215
a(S'4c:60:de:d0:f7:4b'
p216
S'4.71.254.153'
p217
S'69.94.209.214'
p218
S'2012-10-09 08:29:40'
p219
F95367.399999999994
tp220
a(S'4c:60:de:d0:f7:4b'
p221
S'4.71.254.153'
p222
S'69.94.209.214'
p223
S'2012-10-09 12:49:41'
p224
F93479.300000000003
tp225
a(S'4c:60:de:d0:f7:4b'
p226
S'4.71.254.140'
p227
S'69.94.209.214'
p228
S'2012-10-09 17:09:41'
p229
F94784.399999999994
tp230
a(S'4c:60:de:d0:f7:4b'
p231
S'4.71.254.140'
p232
S'69.94.209.214'
p233
S'2012-10-09 21:29:43'
p234
F94635.699999999997
tp235
a(S'4c:60:de:d0:f7:4b'
p236
S'4.71.254.140'
p237
S'69.94.209.214'
p238
S'2012-10-10 01:49:41'
p239
F93120.399999999994
tp240
a(S'4c:60:de:d0:f7:4b'
p241
S'4.71.254.153'
p242
S'69.94.209.214'
p243
S'2012-10-10 06:09:41'
p244
F95472.699999999997
tp245
a(S'4c:60:de:d0:f7:4b'
p246
S'4.71.254.140'
p247
S'69.94.209.214'
p248
S'2012-10-10 08:29:39'
p249
F95102.600000000006
tp250
a(S'4c:60:de:d0:f7:4b'
p251
S'4.71.254.153'
p252
S'69.94.209.214'
p253
S'2012-10-10 12:49:39'
p254
F95523.0
tp255
a(S'4c:60:de:d0:f7:4b'
p256
S'4.71.254.140'
p257
S'69.94.209.214'
p258
S'2012-10-11 01:49:41'
p259
F95118.399999999994
tp260
a(S'4c:60:de:d0:f7:4b'
p261
S'4.71.254.140'
p262
S'69.94.209.214'
p263
S'2012-10-11 06:09:42'
p264
F95051.199999999997
tp265
a(S'4c:60:de:d0:f7:4b'
p266
S'4.71.254.140'
p267
S'69.94.209.214'
p268
S'2012-10-11 08:29:40'
p269
F95259.300000000003
tp270
a(S'4c:60:de:d0:f7:4b'
p271
S'4.71.254.153'
p272
S'69.94.209.214'
p273
S'2012-10-11 12:49:39'
p274
F95027.0
tp275
a(S'4c:60:de:d0:f7:4b'
p276
S'4.71.254.153'
p277
S'69.94.209.214'
p278
S'2012-10-11 17:09:41'
p279
F99923.300000000003
tp280
a(S'4c:60:de:d0:f7:4b'
p281
S'4.71.254.140'
p282
S'69.94.209.214'
p283
S'2012-10-11 21:29:58'
p284
F93293.699999999997
tp285
a(S'4c:60:de:d0:f7:4b'
p286
S'4.71.254.140'
p287
S'69.94.209.214'
p288
S'2012-10-12 01:49:50'
p289
F94955.0
tp290
a(S'4c:60:de:d0:f7:4b'
p291
S'4.71.254.140'
p292
S'69.94.209.214'
p293
S'2012-10-12 06:09:40'
p294
F95248.5
tp295
a(S'4c:60:de:d0:f7:4b'
p296
S'4.71.254.140'
p297
S'69.94.209.214'
p298
S'2012-10-12 08:29:39'
p299
F100796.0
tp300
a(S'4c:60:de:d0:f7:4b'
p301
S'4.71.254.140'
p302
S'69.94.209.214'
p303
S'2012-10-12 12:49:41'
p304
F95160.899999999994
tp305
a(S'4c:60:de:d0:f7:4b'
p306
S'4.71.254.153'
p307
S'69.94.209.214'
p308
S'2012-10-12 17:08:39'
p309
F95438.899999999994
tp310
a(S'4c:60:de:d0:f7:4b'
p311
S'4.71.254.140'
p312
S'69.94.209.214'
p313
S'2012-10-12 21:28:58'
p314
F94998.699999999997
tp315
a(S'4c:60:de:d0:f7:4b'
p316
S'4.71.254.140'
p317
S'69.94.209.214'
p318
S'2012-10-13 01:48:52'
p319
F94876.600000000006
tp320
a(S'4c:60:de:d0:f7:4b'
p321
S'4.71.254.153'
p322
S'69.94.209.214'
p323
S'2012-10-13 06:08:42'
p324
F95637.699999999997
tp325
a(S'4c:60:de:d0:f7:4b'
p326
S'4.71.254.140'
p327
S'69.94.209.214'
p328
S'2012-10-13 08:28:45'
p329
F100363.0
tp330
a(S'4c:60:de:d0:f7:4b'
p331
S'4.71.254.140'
p332
S'69.94.209.214'
p333
S'2012-10-13 17:28:39'
p334
F95722.600000000006
tp335
a(S'4c:60:de:d0:f7:4b'
p336
S'4.71.254.153'
p337
S'69.94.209.214'
p338
S'2012-10-13 21:48:57'
p339
F94828.600000000006
tp340
a(S'4c:60:de:d0:f7:4b'
p341
S'4.71.254.153'
p342
S'69.94.209.214'
p343
S'2012-10-14 02:08:41'
p344
F92487.899999999994
tp345
a(S'4c:60:de:d0:f7:4b'
p346
S'4.71.254.140'
p347
S'69.94.209.214'
p348
S'2012-10-14 06:28:39'
p349
F95823.100000000006
tp350
a(S'4c:60:de:d0:f7:4b'
p351
S'4.71.254.140'
p352
S'69.94.209.214'
p353
S'2012-10-14 08:48:40'
p354
F95505.699999999997
tp355
a(S'4c:60:de:d0:f7:4b'
p356
S'4.71.254.153'
p357
S'69.94.209.214'
p358
S'2012-10-14 13:08:39'
p359
F95513.699999999997
tp360
a(S'4c:60:de:d0:f7:4b'
p361
S'4.71.254.153'
p362
S'69.94.209.214'
p363
S'2012-10-14 17:28:40'
p364
F95671.100000000006
tp365
a(S'4c:60:de:d0:f7:4b'
p366
S'4.71.254.140'
p367
S'69.94.209.214'
p368
S'2012-10-14 21:48:57'
p369
F95056.800000000003
tp370
a.