(lp0
(S'4c:60:de:d0:f5:65'
p1
S'173.164.212.198'
p2
S'143.215.131.173'
p3
S'2012-10-08 01:44:11'
p4
F9618.6000000000004
tp5
a(S'4c:60:de:d0:f5:65'
p6
S'173.164.212.198'
p7
S'143.215.131.173'
p8
S'2012-10-08 06:03:47'
p9
F9328.1900000000005
tp10
a(S'4c:60:de:d0:f5:65'
p11
S'173.164.212.198'
p12
S'143.215.131.173'
p13
S'2012-10-08 10:25:12'
p14
F0.0
tp15
a(S'4c:60:de:d0:f5:65'
p16
S'173.164.212.198'
p17
S'143.215.131.173'
p18
S'2012-10-08 14:43:46'
p19
F9499.3299999999999
tp20
a(S'4c:60:de:d0:f5:65'
p21
S'173.164.212.198'
p22
S'143.215.131.173'
p23
S'2012-10-08 19:03:48'
p24
F0.0
tp25
a(S'4c:60:de:d0:f5:65'
p26
S'173.164.212.198'
p27
S'143.215.131.173'
p28
S'2012-10-08 23:23:56'
p29
F9466.9300000000003
tp30
a(S'4c:60:de:d0:f5:65'
p31
S'173.164.212.198'
p32
S'64.9.225.183'
p33
S'2012-10-09 01:43:41'
p34
F0.0
tp35
a(S'4c:60:de:d0:f5:65'
p36
S'173.164.212.198'
p37
S'64.9.225.161'
p38
S'2012-10-09 06:03:43'
p39
F10014.1
tp40
a(S'4c:60:de:d0:f5:65'
p41
S'173.164.212.198'
p42
S'64.9.225.161'
p43
S'2012-10-09 10:23:46'
p44
F10250.700000000001
tp45
a(S'4c:60:de:d0:f5:65'
p46
S'173.164.212.198'
p47
S'64.9.225.183'
p48
S'2012-10-09 14:43:25'
p49
F0.0
tp50
a(S'4c:60:de:d0:f5:65'
p51
S'173.164.212.198'
p52
S'64.9.225.183'
p53
S'2012-10-09 19:03:27'
p54
F0.0
tp55
a(S'4c:60:de:d0:f5:65'
p56
S'173.164.212.198'
p57
S'64.9.225.161'
p58
S'2012-10-09 23:23:44'
p59
F10117.9
tp60
a(S'4c:60:de:d0:f5:65'
p61
S'173.164.212.198'
p62
S'64.9.225.140'
p63
S'2012-10-10 01:43:57'
p64
F10094.200000000001
tp65
a(S'4c:60:de:d0:f5:65'
p66
S'173.164.212.198'
p67
S'64.9.225.183'
p68
S'2012-10-10 06:03:27'
p69
F0.0
tp70
a(S'4c:60:de:d0:f5:65'
p71
S'173.164.212.198'
p72
S'64.9.225.183'
p73
S'2012-10-11 01:43:41'
p74
F0.0
tp75
a(S'4c:60:de:d0:f5:65'
p76
S'173.164.212.198'
p77
S'64.9.225.170'
p78
S'2012-10-11 06:03:44'
p79
F10128.4
tp80
a(S'4c:60:de:d0:f5:65'
p81
S'173.164.212.198'
p82
S'64.9.225.140'
p83
S'2012-10-11 10:23:46'
p84
F10050.200000000001
tp85
a(S'4c:60:de:d0:f5:65'
p86
S'173.164.212.198'
p87
S'64.9.225.140'
p88
S'2012-10-11 14:43:41'
p89
F10265.4
tp90
a(S'4c:60:de:d0:f5:65'
p91
S'173.164.212.198'
p92
S'64.9.225.140'
p93
S'2012-10-11 19:03:45'
p94
F10193.200000000001
tp95
a(S'4c:60:de:d0:f5:65'
p96
S'173.164.212.198'
p97
S'64.9.225.140'
p98
S'2012-10-11 23:23:46'
p99
F10068.4
tp100
a(S'4c:60:de:d0:f5:65'
p101
S'173.164.212.198'
p102
S'64.9.225.161'
p103
S'2012-10-12 01:43:59'
p104
F10105.1
tp105
a(S'4c:60:de:d0:f5:65'
p106
S'173.164.212.198'
p107
S'64.9.225.140'
p108
S'2012-10-12 06:03:45'
p109
F10111.9
tp110
a(S'4c:60:de:d0:f5:65'
p111
S'173.164.212.198'
p112
S'64.9.225.140'
p113
S'2012-10-12 10:23:45'
p114
F10101.5
tp115
a(S'4c:60:de:d0:f5:65'
p116
S'173.164.212.198'
p117
S'64.9.225.140'
p118
S'2012-10-12 14:43:42'
p119
F10161.0
tp120
a(S'4c:60:de:d0:f5:65'
p121
S'173.164.212.198'
p122
S'64.9.225.161'
p123
S'2012-10-12 23:23:46'
p124
F10093.5
tp125
a(S'4c:60:de:d0:f5:65'
p126
S'173.164.212.198'
p127
S'64.9.225.183'
p128
S'2012-10-13 01:43:46'
p129
F0.0
tp130
a(S'4c:60:de:d0:f5:65'
p131
S'173.164.212.198'
p132
S'64.9.225.183'
p133
S'2012-10-13 06:02:30'
p134
F0.0
tp135
a(S'4c:60:de:d0:f5:65'
p136
S'173.164.212.198'
p137
S'64.9.225.140'
p138
S'2012-10-13 10:22:50'
p139
F10150.0
tp140
a(S'4c:60:de:d0:f5:65'
p141
S'173.164.212.198'
p142
S'64.9.225.183'
p143
S'2012-10-13 14:52:27'
p144
F0.0
tp145
a(S'4c:60:de:d0:f5:65'
p146
S'173.164.212.198'
p147
S'64.9.225.183'
p148
S'2012-10-13 19:12:33'
p149
F0.0
tp150
a(S'4c:60:de:d0:f5:65'
p151
S'173.164.212.198'
p152
S'64.9.225.161'
p153
S'2012-10-13 23:32:45'
p154
F10207.1
tp155
a(S'4c:60:de:d0:f5:65'
p156
S'173.164.212.198'
p157
S'64.9.225.140'
p158
S'2012-10-14 01:52:59'
p159
F9943.7399999999998
tp160
a(S'4c:60:de:d0:f5:65'
p161
S'173.164.212.198'
p162
S'64.9.225.183'
p163
S'2012-10-14 06:12:28'
p164
F0.0
tp165
a(S'4c:60:de:d0:f5:65'
p166
S'173.164.212.198'
p167
S'64.9.225.161'
p168
S'2012-10-14 10:32:46'
p169
F10081.700000000001
tp170
a(S'4c:60:de:d0:f5:65'
p171
S'173.164.212.198'
p172
S'64.9.225.161'
p173
S'2012-10-14 14:52:42'
p174
F10119.9
tp175
a(S'4c:60:de:d0:f5:65'
p176
S'173.164.212.198'
p177
S'64.9.225.140'
p178
S'2012-10-14 19:12:45'
p179
F10276.299999999999
tp180
a(S'4c:60:de:d0:f5:65'
p181
S'173.164.212.198'
p182
S'64.9.225.183'
p183
S'2012-10-14 23:32:28'
p184
F0.0
tp185
a.