(lp0
(S'4c:60:de:e6:c9:ab'
p1
S'143.215.131.173'
p2
S'24.14.199.139'
p3
S'2012-10-02 07:45:16'
p4
F19810.799999999999
tp5
a(S'4c:60:de:e6:c9:ab'
p6
S'143.215.131.173'
p7
S'24.14.199.139'
p8
S'2012-10-02 12:00:46'
p9
F0.0
tp10
a(S'4c:60:de:e6:c9:ab'
p11
S'143.215.131.173'
p12
S'24.14.199.139'
p13
S'2012-10-02 16:20:55'
p14
F19937.700000000001
tp15
a(S'4c:60:de:e6:c9:ab'
p16
S'143.215.131.173'
p17
S'24.14.199.139'
p18
S'2012-10-02 20:41:01'
p19
F0.0
tp20
a(S'4c:60:de:e6:c9:ab'
p21
S'38.106.70.153'
p22
S'24.14.199.139'
p23
S'2012-10-03 01:00:47'
p24
F0.0
tp25
a(S'4c:60:de:e6:c9:ab'
p26
S'38.106.70.143'
p27
S'24.14.199.139'
p28
S'2012-10-03 09:20:47'
p29
F0.0
tp30
a(S'4c:60:de:e6:c9:ab'
p31
S'38.106.70.143'
p32
S'24.14.199.139'
p33
S'2012-10-03 12:40:47'
p34
F20128.799999999999
tp35
a(S'4c:60:de:e6:c9:ab'
p36
S'38.106.70.165'
p37
S'24.14.199.139'
p38
S'2012-10-03 17:00:47'
p39
F20106.5
tp40
a(S'4c:60:de:e6:c9:ab'
p41
S'38.106.70.153'
p42
S'24.14.199.139'
p43
S'2012-10-03 21:20:52'
p44
F19939.200000000001
tp45
a(S'4c:60:de:e6:c9:ab'
p46
S'38.106.70.143'
p47
S'24.14.199.139'
p48
S'2012-10-04 01:41:01'
p49
F21399.299999999999
tp50
a(S'4c:60:de:e6:c9:ab'
p51
S'38.106.70.143'
p52
S'24.14.199.139'
p53
S'2012-10-04 06:00:44'
p54
F20348.900000000001
tp55
a(S'4c:60:de:e6:c9:ab'
p56
S'38.106.70.143'
p57
S'24.14.199.139'
p58
S'2012-10-04 10:20:47'
p59
F20306.099999999999
tp60
a(S'4c:60:de:e6:c9:ab'
p61
S'38.106.70.165'
p62
S'24.14.199.139'
p63
S'2012-10-04 12:40:51'
p64
F0.0
tp65
a(S'4c:60:de:e6:c9:ab'
p66
S'38.106.70.153'
p67
S'24.14.199.139'
p68
S'2012-10-04 17:00:45'
p69
F0.0
tp70
a(S'4c:60:de:e6:c9:ab'
p71
S'38.106.70.153'
p72
S'24.14.199.139'
p73
S'2012-10-04 21:20:45'
p74
F20006.099999999999
tp75
a(S'4c:60:de:e6:c9:ab'
p76
S'38.106.70.153'
p77
S'24.14.199.139'
p78
S'2012-10-05 01:41:01'
p79
F0.0
tp80
a(S'4c:60:de:e6:c9:ab'
p81
S'38.106.70.143'
p82
S'24.14.199.139'
p83
S'2012-10-05 06:09:45'
p84
F20297.299999999999
tp85
a(S'4c:60:de:e6:c9:ab'
p86
S'38.106.70.143'
p87
S'24.14.199.139'
p88
S'2012-10-05 10:29:46'
p89
F20923.099999999999
tp90
a(S'4c:60:de:e6:c9:ab'
p91
S'38.106.70.153'
p92
S'24.14.199.139'
p93
S'2012-10-05 12:49:55'
p94
F20228.400000000001
tp95
a(S'4c:60:de:e6:c9:ab'
p96
S'38.106.70.143'
p97
S'24.14.199.139'
p98
S'2012-10-05 17:09:45'
p99
F21047.599999999999
tp100
a(S'4c:60:de:e6:c9:ab'
p101
S'38.106.70.153'
p102
S'24.14.199.139'
p103
S'2012-10-06 00:29:45'
p104
F20170.5
tp105
a(S'4c:60:de:e6:c9:ab'
p106
S'38.106.70.143'
p107
S'24.14.199.139'
p108
S'2012-10-06 14:59:44'
p109
F19879.5
tp110
a(S'4c:60:de:e6:c9:ab'
p111
S'38.106.70.143'
p112
S'24.14.199.139'
p113
S'2012-10-06 19:19:51'
p114
F0.0
tp115
a(S'4c:60:de:e6:c9:ab'
p116
S'38.106.70.153'
p117
S'24.14.199.139'
p118
S'2012-10-06 21:39:46'
p119
F20087.799999999999
tp120
a(S'4c:60:de:e6:c9:ab'
p121
S'38.106.70.143'
p122
S'24.14.199.139'
p123
S'2012-10-07 01:59:46'
p124
F20299.0
tp125
a(S'4c:60:de:e6:c9:ab'
p126
S'38.106.70.165'
p127
S'24.14.199.139'
p128
S'2012-10-07 06:19:45'
p129
F0.0
tp130
a(S'4c:60:de:e6:c9:ab'
p131
S'38.106.70.143'
p132
S'24.14.199.139'
p133
S'2012-10-07 10:40:00'
p134
F0.0
tp135
a(S'4c:60:de:e6:c9:ab'
p136
S'38.106.70.165'
p137
S'24.14.199.139'
p138
S'2012-10-07 14:59:45'
p139
F20240.599999999999
tp140
a(S'4c:60:de:e6:c9:ab'
p141
S'38.106.70.165'
p142
S'24.14.199.139'
p143
S'2012-10-07 19:19:45'
p144
F20185.200000000001
tp145
a(S'4c:60:de:e6:c9:ab'
p146
S'38.106.70.143'
p147
S'24.14.199.139'
p148
S'2012-10-07 21:39:44'
p149
F21116.400000000001
tp150
a(S'4c:60:de:e6:c9:ab'
p151
S'38.106.70.153'
p152
S'24.14.199.139'
p153
S'2012-10-08 01:59:45'
p154
F22317.799999999999
tp155
a(S'4c:60:de:e6:c9:ab'
p156
S'38.106.70.153'
p157
S'24.14.199.139'
p158
S'2012-10-08 06:19:47'
p159
F0.0
tp160
a(S'4c:60:de:e6:c9:ab'
p161
S'38.106.70.165'
p162
S'24.14.199.139'
p163
S'2012-10-08 10:40:00'
p164
F20008.400000000001
tp165
a(S'4c:60:de:e6:c9:ab'
p166
S'38.106.70.143'
p167
S'24.14.199.139'
p168
S'2012-10-08 16:59:47'
p169
F0.0
tp170
a(S'4c:60:de:e6:c9:ab'
p171
S'38.106.70.165'
p172
S'24.14.199.139'
p173
S'2012-10-09 01:19:47'
p174
F21513.599999999999
tp175
a(S'4c:60:de:e6:c9:ab'
p176
S'38.106.70.165'
p177
S'24.14.199.139'
p178
S'2012-10-09 09:59:45'
p179
F0.0
tp180
a(S'4c:60:de:e6:c9:ab'
p181
S'38.106.70.153'
p182
S'24.14.199.139'
p183
S'2012-10-09 14:19:45'
p184
F20041.099999999999
tp185
a(S'4c:60:de:e6:c9:ab'
p186
S'38.106.70.153'
p187
S'24.14.199.139'
p188
S'2012-10-09 18:40:00'
p189
F20888.900000000001
tp190
a(S'4c:60:de:e6:c9:ab'
p191
S'38.106.70.153'
p192
S'24.14.199.139'
p193
S'2012-10-09 22:59:46'
p194
F20234.0
tp195
a(S'4c:60:de:e6:c9:ab'
p196
S'38.106.70.165'
p197
S'24.14.199.139'
p198
S'2012-10-10 03:19:45'
p199
F20306.400000000001
tp200
a(S'4c:60:de:e6:c9:ab'
p201
S'38.106.70.153'
p202
S'24.14.199.139'
p203
S'2012-10-10 05:39:47'
p204
F20666.099999999999
tp205
a(S'4c:60:de:e6:c9:ab'
p206
S'38.106.70.153'
p207
S'24.14.199.139'
p208
S'2012-10-10 09:59:45'
p209
F0.0
tp210
a(S'4c:60:de:e6:c9:ab'
p211
S'38.106.70.143'
p212
S'24.14.199.139'
p213
S'2012-10-10 22:59:52'
p214
F10787.1
tp215
a(S'4c:60:de:e6:c9:ab'
p216
S'38.106.70.153'
p217
S'24.14.199.139'
p218
S'2012-10-11 03:19:55'
p219
F10569.4
tp220
a(S'4c:60:de:e6:c9:ab'
p221
S'38.106.70.165'
p222
S'24.14.199.139'
p223
S'2012-10-11 05:39:48'
p224
F0.0
tp225
a(S'4c:60:de:e6:c9:ab'
p226
S'38.106.70.153'
p227
S'24.14.199.139'
p228
S'2012-10-11 09:59:45'
p229
F20133.400000000001
tp230
a(S'4c:60:de:e6:c9:ab'
p231
S'38.106.70.153'
p232
S'24.14.199.139'
p233
S'2012-10-11 14:18:44'
p234
F20348.799999999999
tp235
a(S'4c:60:de:e6:c9:ab'
p236
S'38.106.70.143'
p237
S'24.14.199.139'
p238
S'2012-10-11 18:38:59'
p239
F20505.799999999999
tp240
a(S'4c:60:de:e6:c9:ab'
p241
S'38.106.70.153'
p242
S'24.14.199.139'
p243
S'2012-10-11 22:58:47'
p244
F0.0
tp245
a(S'4c:60:de:e6:c9:ab'
p246
S'38.106.70.153'
p247
S'24.14.199.139'
p248
S'2012-10-12 03:18:45'
p249
F20187.0
tp250
a(S'4c:60:de:e6:c9:ab'
p251
S'38.106.70.153'
p252
S'24.14.199.139'
p253
S'2012-10-12 05:38:46'
p254
F0.0
tp255
a(S'4c:60:de:e6:c9:ab'
p256
S'38.106.70.143'
p257
S'24.14.199.139'
p258
S'2012-10-12 09:58:45'
p259
F0.0
tp260
a(S'4c:60:de:e6:c9:ab'
p261
S'38.106.70.153'
p262
S'24.14.199.139'
p263
S'2012-10-12 14:18:45'
p264
F20445.700000000001
tp265
a(S'4c:60:de:e6:c9:ab'
p266
S'38.106.70.165'
p267
S'24.14.199.139'
p268
S'2012-10-12 22:58:44'
p269
F20515.700000000001
tp270
a(S'4c:60:de:e6:c9:ab'
p271
S'38.106.70.165'
p272
S'24.14.199.139'
p273
S'2012-10-13 03:18:44'
p274
F20800.799999999999
tp275
a(S'4c:60:de:e6:c9:ab'
p276
S'38.106.70.153'
p277
S'24.14.199.139'
p278
S'2012-10-13 05:38:45'
p279
F0.0
tp280
a(S'4c:60:de:e6:c9:ab'
p281
S'38.106.70.153'
p282
S'24.14.199.139'
p283
S'2012-10-13 09:58:45'
p284
F20032.099999999999
tp285
a(S'4c:60:de:e6:c9:ab'
p286
S'38.106.70.165'
p287
S'24.14.199.139'
p288
S'2012-10-13 14:18:46'
p289
F20249.5
tp290
a(S'4c:60:de:e6:c9:ab'
p291
S'38.106.70.143'
p292
S'24.14.199.139'
p293
S'2012-10-14 03:28:44'
p294
F20203.200000000001
tp295
a(S'4c:60:de:e6:c9:ab'
p296
S'38.106.70.165'
p297
S'24.14.199.139'
p298
S'2012-10-14 07:48:43'
p299
F20164.400000000001
tp300
a(S'4c:60:de:e6:c9:ab'
p301
S'38.106.70.165'
p302
S'24.14.199.139'
p303
S'2012-10-14 10:08:44'
p304
F20221.5
tp305
a(S'4c:60:de:e6:c9:ab'
p306
S'38.106.70.153'
p307
S'24.14.199.139'
p308
S'2012-10-14 14:28:48'
p309
F13411.6
tp310
a(S'4c:60:de:e6:c9:ab'
p311
S'38.106.70.143'
p312
S'24.14.199.139'
p313
S'2012-10-14 18:48:45'
p314
F21384.099999999999
tp315
a(S'4c:60:de:e6:c9:ab'
p316
S'38.106.70.153'
p317
S'24.14.199.139'
p318
S'2012-10-14 23:08:59'
p319
F21089.5
tp320
a.