(lp0
(S'4c:60:de:d0:f5:65'
p1
S'143.215.131.173'
p2
S'173.164.212.198'
p3
S'2012-10-08 01:33:48'
p4
F31090.099999999999
tp5
a(S'4c:60:de:d0:f5:65'
p6
S'143.215.131.173'
p7
S'173.164.212.198'
p8
S'2012-10-08 05:53:56'
p9
F30994.400000000001
tp10
a(S'4c:60:de:d0:f5:65'
p11
S'143.215.131.173'
p12
S'173.164.212.198'
p13
S'2012-10-08 10:13:45'
p14
F31066.700000000001
tp15
a(S'4c:60:de:d0:f5:65'
p16
S'143.215.131.173'
p17
S'173.164.212.198'
p18
S'2012-10-08 14:34:10'
p19
F31251.400000000001
tp20
a(S'4c:60:de:d0:f5:65'
p21
S'143.215.131.173'
p22
S'173.164.212.198'
p23
S'2012-10-08 18:53:46'
p24
F31215.599999999999
tp25
a(S'4c:60:de:d0:f5:65'
p26
S'143.215.131.173'
p27
S'173.164.212.198'
p28
S'2012-10-08 23:14:37'
p29
F31120.400000000001
tp30
a(S'4c:60:de:d0:f5:65'
p31
S'64.9.225.140'
p32
S'173.164.212.198'
p33
S'2012-10-09 01:33:44'
p34
F31976.099999999999
tp35
a(S'4c:60:de:d0:f5:65'
p36
S'64.9.225.140'
p37
S'173.164.212.198'
p38
S'2012-10-09 05:53:46'
p39
F31753.200000000001
tp40
a(S'4c:60:de:d0:f5:65'
p41
S'64.9.225.161'
p42
S'173.164.212.198'
p43
S'2012-10-09 10:13:46'
p44
F33463.5
tp45
a(S'4c:60:de:d0:f5:65'
p46
S'64.9.225.140'
p47
S'173.164.212.198'
p48
S'2012-10-09 14:34:00'
p49
F31778.599999999999
tp50
a(S'4c:60:de:d0:f5:65'
p51
S'64.9.225.161'
p52
S'173.164.212.198'
p53
S'2012-10-09 18:53:46'
p54
F32119.200000000001
tp55
a(S'4c:60:de:d0:f5:65'
p56
S'64.9.225.140'
p57
S'173.164.212.198'
p58
S'2012-10-09 23:13:45'
p59
F31799.5
tp60
a(S'4c:60:de:d0:f5:65'
p61
S'64.9.225.161'
p62
S'173.164.212.198'
p63
S'2012-10-10 01:33:50'
p64
F32390.799999999999
tp65
a(S'4c:60:de:d0:f5:65'
p66
S'64.9.225.161'
p67
S'173.164.212.198'
p68
S'2012-10-10 05:53:46'
p69
F32175.900000000001
tp70
a(S'4c:60:de:d0:f5:65'
p71
S'64.9.225.183'
p72
S'173.164.212.198'
p73
S'2012-10-10 23:13:19'
p74
F0.0
tp75
a(S'4c:60:de:d0:f5:65'
p76
S'64.9.225.170'
p77
S'173.164.212.198'
p78
S'2012-10-11 01:33:44'
p79
F32507.0
tp80
a(S'4c:60:de:d0:f5:65'
p81
S'64.9.225.161'
p82
S'173.164.212.198'
p83
S'2012-10-11 05:53:45'
p84
F32627.700000000001
tp85
a(S'4c:60:de:d0:f5:65'
p86
S'64.9.225.140'
p87
S'173.164.212.198'
p88
S'2012-10-11 10:13:45'
p89
F32582.700000000001
tp90
a(S'4c:60:de:d0:f5:65'
p91
S'64.9.225.140'
p92
S'173.164.212.198'
p93
S'2012-10-11 14:33:59'
p94
F32259.400000000001
tp95
a(S'4c:60:de:d0:f5:65'
p96
S'64.9.225.183'
p97
S'173.164.212.198'
p98
S'2012-10-11 18:53:26'
p99
F0.0
tp100
a(S'4c:60:de:d0:f5:65'
p101
S'64.9.225.161'
p102
S'173.164.212.198'
p103
S'2012-10-11 23:13:45'
p104
F32290.299999999999
tp105
a(S'4c:60:de:d0:f5:65'
p106
S'64.9.225.161'
p107
S'173.164.212.198'
p108
S'2012-10-12 01:33:45'
p109
F32467.799999999999
tp110
a(S'4c:60:de:d0:f5:65'
p111
S'64.9.225.161'
p112
S'173.164.212.198'
p113
S'2012-10-12 05:53:44'
p114
F32987.199999999997
tp115
a(S'4c:60:de:d0:f5:65'
p116
S'64.9.225.161'
p117
S'173.164.212.198'
p118
S'2012-10-12 10:13:44'
p119
F32576.700000000001
tp120
a(S'4c:60:de:d0:f5:65'
p121
S'64.9.225.140'
p122
S'173.164.212.198'
p123
S'2012-10-12 14:33:58'
p124
F33224.699999999997
tp125
a(S'4c:60:de:d0:f5:65'
p126
S'64.9.225.183'
p127
S'173.164.212.198'
p128
S'2012-10-12 18:53:16'
p129
F0.0
tp130
a(S'4c:60:de:d0:f5:65'
p131
S'64.9.225.161'
p132
S'173.164.212.198'
p133
S'2012-10-12 23:13:45'
p134
F32202.900000000001
tp135
a(S'4c:60:de:d0:f5:65'
p136
S'64.9.225.161'
p137
S'173.164.212.198'
p138
S'2012-10-13 01:33:47'
p139
F32030.200000000001
tp140
a(S'4c:60:de:d0:f5:65'
p141
S'64.9.225.183'
p142
S'173.164.212.198'
p143
S'2012-10-13 05:52:29'
p144
F0.0
tp145
a(S'4c:60:de:d0:f5:65'
p146
S'64.9.225.183'
p147
S'173.164.212.198'
p148
S'2012-10-13 10:12:28'
p149
F0.0
tp150
a(S'4c:60:de:d0:f5:65'
p151
S'64.9.225.161'
p152
S'173.164.212.198'
p153
S'2012-10-13 14:42:59'
p154
F33237.800000000003
tp155
a(S'4c:60:de:d0:f5:65'
p156
S'64.9.225.183'
p157
S'173.164.212.198'
p158
S'2012-10-13 19:02:28'
p159
F0.0
tp160
a(S'4c:60:de:d0:f5:65'
p161
S'64.9.225.140'
p162
S'173.164.212.198'
p163
S'2012-10-13 23:22:46'
p164
F32290.599999999999
tp165
a(S'4c:60:de:d0:f5:65'
p166
S'64.9.225.140'
p167
S'173.164.212.198'
p168
S'2012-10-14 01:42:45'
p169
F32195.0
tp170
a(S'4c:60:de:d0:f5:65'
p171
S'64.9.225.140'
p172
S'173.164.212.198'
p173
S'2012-10-14 06:02:47'
p174
F31520.799999999999
tp175
a(S'4c:60:de:d0:f5:65'
p176
S'64.9.225.140'
p177
S'173.164.212.198'
p178
S'2012-10-14 10:22:45'
p179
F33247.099999999999
tp180
a(S'4c:60:de:d0:f5:65'
p181
S'64.9.225.183'
p182
S'173.164.212.198'
p183
S'2012-10-14 14:42:42'
p184
F0.0
tp185
a(S'4c:60:de:d0:f5:65'
p186
S'64.9.225.161'
p187
S'173.164.212.198'
p188
S'2012-10-14 19:02:46'
p189
F32076.700000000001
tp190
a(S'4c:60:de:d0:f5:65'
p191
S'64.9.225.161'
p192
S'173.164.212.198'
p193
S'2012-10-14 23:22:45'
p194
F32875.099999999999
tp195
a.