(lp0
(S'4c:60:de:d0:f7:4b'
p1
S'69.94.209.214'
p2
S'4.71.254.140'
p3
S'2012-10-02 01:39:35'
p4
F68557.0
tp5
a(S'4c:60:de:d0:f7:4b'
p6
S'69.94.209.214'
p7
S'4.71.254.140'
p8
S'2012-10-02 03:59:48'
p9
F67445.800000000003
tp10
a(S'4c:60:de:d0:f7:4b'
p11
S'69.94.209.214'
p12
S'4.71.254.140'
p13
S'2012-10-02 08:19:36'
p14
F66816.5
tp15
a(S'4c:60:de:d0:f7:4b'
p16
S'69.94.209.214'
p17
S'4.71.254.153'
p18
S'2012-10-02 12:39:36'
p19
F66473.600000000006
tp20
a(S'4c:60:de:d0:f7:4b'
p21
S'69.94.209.214'
p22
S'4.71.254.153'
p23
S'2012-10-02 16:59:43'
p24
F67647.100000000006
tp25
a(S'4c:60:de:d0:f7:4b'
p26
S'69.94.209.214'
p27
S'4.71.254.140'
p28
S'2012-10-02 21:19:36'
p29
F67584.300000000003
tp30
a(S'4c:60:de:d0:f7:4b'
p31
S'69.94.209.214'
p32
S'4.71.254.140'
p33
S'2012-10-03 01:39:37'
p34
F68168.600000000006
tp35
a(S'4c:60:de:d0:f7:4b'
p36
S'69.94.209.214'
p37
S'4.71.254.140'
p38
S'2012-10-03 03:59:49'
p39
F67996.0
tp40
a(S'4c:60:de:d0:f7:4b'
p41
S'69.94.209.214'
p42
S'4.71.254.153'
p43
S'2012-10-03 08:19:40'
p44
F66866.300000000003
tp45
a(S'4c:60:de:d0:f7:4b'
p46
S'69.94.209.214'
p47
S'4.71.254.140'
p48
S'2012-10-03 12:39:38'
p49
F69631.100000000006
tp50
a(S'4c:60:de:d0:f7:4b'
p51
S'69.94.209.214'
p52
S'4.71.254.140'
p53
S'2012-10-03 16:59:37'
p54
F67903.399999999994
tp55
a(S'4c:60:de:d0:f7:4b'
p56
S'69.94.209.214'
p57
S'4.71.254.153'
p58
S'2012-10-03 21:19:35'
p59
F67141.0
tp60
a(S'4c:60:de:d0:f7:4b'
p61
S'69.94.209.214'
p62
S'4.71.254.153'
p63
S'2012-10-04 01:39:34'
p64
F65899.600000000006
tp65
a(S'4c:60:de:d0:f7:4b'
p66
S'69.94.209.214'
p67
S'4.71.254.153'
p68
S'2012-10-04 03:59:51'
p69
F62774.0
tp70
a(S'4c:60:de:d0:f7:4b'
p71
S'69.94.209.214'
p72
S'4.71.254.140'
p73
S'2012-10-04 08:19:35'
p74
F67020.0
tp75
a(S'4c:60:de:d0:f7:4b'
p76
S'69.94.209.214'
p77
S'4.71.254.140'
p78
S'2012-10-04 12:39:43'
p79
F69332.300000000003
tp80
a(S'4c:60:de:d0:f7:4b'
p81
S'69.94.209.214'
p82
S'4.71.254.153'
p83
S'2012-10-04 16:59:38'
p84
F66121.800000000003
tp85
a(S'4c:60:de:d0:f7:4b'
p86
S'69.94.209.214'
p87
S'4.71.254.140'
p88
S'2012-10-04 21:19:39'
p89
F66003.399999999994
tp90
a(S'4c:60:de:d0:f7:4b'
p91
S'69.94.209.214'
p92
S'4.71.254.140'
p93
S'2012-10-05 01:39:42'
p94
F68163.699999999997
tp95
a(S'4c:60:de:d0:f7:4b'
p96
S'69.94.209.214'
p97
S'4.71.254.153'
p98
S'2012-10-05 03:59:53'
p99
F66981.800000000003
tp100
a(S'4c:60:de:d0:f7:4b'
p101
S'69.94.209.214'
p102
S'4.71.254.140'
p103
S'2012-10-05 08:19:50'
p104
F67987.5
tp105
a(S'4c:60:de:d0:f7:4b'
p106
S'69.94.209.214'
p107
S'4.71.254.153'
p108
S'2012-10-05 12:39:41'
p109
F68516.0
tp110
a(S'4c:60:de:d0:f7:4b'
p111
S'69.94.209.214'
p112
S'4.71.254.153'
p113
S'2012-10-05 16:59:39'
p114
F67953.100000000006
tp115
a(S'4c:60:de:d0:f7:4b'
p116
S'69.94.209.214'
p117
S'4.71.254.140'
p118
S'2012-10-05 21:19:41'
p119
F67734.800000000003
tp120
a(S'4c:60:de:d0:f7:4b'
p121
S'69.94.209.214'
p122
S'4.71.254.140'
p123
S'2012-10-06 01:39:42'
p124
F66764.199999999997
tp125
a(S'4c:60:de:d0:f7:4b'
p126
S'69.94.209.214'
p127
S'4.71.254.140'
p128
S'2012-10-06 03:59:56'
p129
F65380.400000000001
tp130
a(S'4c:60:de:d0:f7:4b'
p131
S'69.94.209.214'
p132
S'4.71.254.153'
p133
S'2012-10-06 08:19:40'
p134
F67906.199999999997
tp135
a(S'4c:60:de:d0:f7:4b'
p136
S'69.94.209.214'
p137
S'4.71.254.140'
p138
S'2012-10-06 12:39:40'
p139
F67386.800000000003
tp140
a(S'4c:60:de:d0:f7:4b'
p141
S'69.94.209.214'
p142
S'4.71.254.140'
p143
S'2012-10-06 16:59:39'
p144
F68414.5
tp145
a(S'4c:60:de:d0:f7:4b'
p146
S'69.94.209.214'
p147
S'4.71.254.140'
p148
S'2012-10-06 21:19:41'
p149
F66000.399999999994
tp150
a(S'4c:60:de:d0:f7:4b'
p151
S'69.94.209.214'
p152
S'4.71.254.153'
p153
S'2012-10-07 03:59:54'
p154
F65768.699999999997
tp155
a(S'4c:60:de:d0:f7:4b'
p156
S'69.94.209.214'
p157
S'4.71.254.140'
p158
S'2012-10-07 16:59:41'
p159
F68832.600000000006
tp160
a(S'4c:60:de:d0:f7:4b'
p161
S'69.94.209.214'
p162
S'4.71.254.153'
p163
S'2012-10-07 21:39:42'
p164
F66667.0
tp165
a(S'4c:60:de:d0:f7:4b'
p166
S'69.94.209.214'
p167
S'4.71.254.140'
p168
S'2012-10-08 06:19:41'
p169
F68359.699999999997
tp170
a(S'4c:60:de:d0:f7:4b'
p171
S'69.94.209.214'
p172
S'4.71.254.140'
p173
S'2012-10-08 08:39:53'
p174
F67798.0
tp175
a(S'4c:60:de:d0:f7:4b'
p176
S'69.94.209.214'
p177
S'4.71.254.140'
p178
S'2012-10-08 12:59:52'
p179
F67907.300000000003
tp180
a(S'4c:60:de:d0:f7:4b'
p181
S'69.94.209.214'
p182
S'4.71.254.140'
p183
S'2012-10-08 17:19:40'
p184
F68556.899999999994
tp185
a(S'4c:60:de:d0:f7:4b'
p186
S'69.94.209.214'
p187
S'4.71.254.153'
p188
S'2012-10-08 21:39:39'
p189
F67602.100000000006
tp190
a(S'4c:60:de:d0:f7:4b'
p191
S'69.94.209.214'
p192
S'4.71.254.140'
p193
S'2012-10-09 01:59:39'
p194
F69159.5
tp195
a(S'4c:60:de:d0:f7:4b'
p196
S'69.94.209.214'
p197
S'4.71.254.153'
p198
S'2012-10-09 06:19:41'
p199
F67854.399999999994
tp200
a(S'4c:60:de:d0:f7:4b'
p201
S'69.94.209.214'
p202
S'4.71.254.153'
p203
S'2012-10-09 08:39:55'
p204
F67709.699999999997
tp205
a(S'4c:60:de:d0:f7:4b'
p206
S'69.94.209.214'
p207
S'4.71.254.140'
p208
S'2012-10-09 12:59:41'
p209
F68974.199999999997
tp210
a(S'4c:60:de:d0:f7:4b'
p211
S'69.94.209.214'
p212
S'4.71.254.140'
p213
S'2012-10-09 17:19:42'
p214
F68546.800000000003
tp215
a(S'4c:60:de:d0:f7:4b'
p216
S'69.94.209.214'
p217
S'4.71.254.153'
p218
S'2012-10-09 21:39:39'
p219
F69376.600000000006
tp220
a(S'4c:60:de:d0:f7:4b'
p221
S'69.94.209.214'
p222
S'4.71.254.153'
p223
S'2012-10-10 01:59:41'
p224
F71027.5
tp225
a(S'4c:60:de:d0:f7:4b'
p226
S'69.94.209.214'
p227
S'4.71.254.140'
p228
S'2012-10-10 06:19:40'
p229
F68069.0
tp230
a(S'4c:60:de:d0:f7:4b'
p231
S'69.94.209.214'
p232
S'4.71.254.140'
p233
S'2012-10-10 12:59:41'
p234
F69134.399999999994
tp235
a(S'4c:60:de:d0:f7:4b'
p236
S'69.94.209.214'
p237
S'4.71.254.153'
p238
S'2012-10-10 08:39:52'
p239
F68138.199999999997
tp240
a(S'4c:60:de:d0:f7:4b'
p241
S'69.94.209.214'
p242
S'4.71.254.153'
p243
S'2012-10-10 21:39:39'
p244
F68591.600000000006
tp245
a(S'4c:60:de:d0:f7:4b'
p246
S'69.94.209.214'
p247
S'4.71.254.140'
p248
S'2012-10-11 01:59:39'
p249
F67370.800000000003
tp250
a(S'4c:60:de:d0:f7:4b'
p251
S'69.94.209.214'
p252
S'4.71.254.140'
p253
S'2012-10-11 06:19:40'
p254
F67893.800000000003
tp255
a(S'4c:60:de:d0:f7:4b'
p256
S'69.94.209.214'
p257
S'4.71.254.140'
p258
S'2012-10-11 08:39:54'
p259
F67180.600000000006
tp260
a(S'4c:60:de:d0:f7:4b'
p261
S'69.94.209.214'
p262
S'4.71.254.153'
p263
S'2012-10-11 13:00:06'
p264
F67835.600000000006
tp265
a(S'4c:60:de:d0:f7:4b'
p266
S'69.94.209.214'
p267
S'4.71.254.153'
p268
S'2012-10-11 17:19:42'
p269
F67953.199999999997
tp270
a(S'4c:60:de:d0:f7:4b'
p271
S'69.94.209.214'
p272
S'4.71.254.153'
p273
S'2012-10-11 21:39:39'
p274
F67879.199999999997
tp275
a(S'4c:60:de:d0:f7:4b'
p276
S'69.94.209.214'
p277
S'4.71.254.140'
p278
S'2012-10-12 01:59:41'
p279
F68104.399999999994
tp280
a(S'4c:60:de:d0:f7:4b'
p281
S'69.94.209.214'
p282
S'4.71.254.140'
p283
S'2012-10-12 06:19:40'
p284
F65682.5
tp285
a(S'4c:60:de:d0:f7:4b'
p286
S'69.94.209.214'
p287
S'4.71.254.140'
p288
S'2012-10-12 12:59:41'
p289
F66218.899999999994
tp290
a(S'4c:60:de:d0:f7:4b'
p291
S'69.94.209.214'
p292
S'4.71.254.153'
p293
S'2012-10-12 17:18:44'
p294
F67894.300000000003
tp295
a(S'4c:60:de:d0:f7:4b'
p296
S'69.94.209.214'
p297
S'4.71.254.153'
p298
S'2012-10-12 21:38:40'
p299
F68190.300000000003
tp300
a(S'4c:60:de:d0:f7:4b'
p301
S'69.94.209.214'
p302
S'4.71.254.140'
p303
S'2012-10-13 01:58:44'
p304
F64760.599999999999
tp305
a(S'4c:60:de:d0:f7:4b'
p306
S'69.94.209.214'
p307
S'4.71.254.153'
p308
S'2012-10-13 06:18:41'
p309
F66184.0
tp310
a(S'4c:60:de:d0:f7:4b'
p311
S'69.94.209.214'
p312
S'4.71.254.140'
p313
S'2012-10-13 08:38:55'
p314
F65678.399999999994
tp315
a(S'4c:60:de:d0:f7:4b'
p316
S'69.94.209.214'
p317
S'4.71.254.153'
p318
S'2012-10-13 17:38:45'
p319
F67273.399999999994
tp320
a(S'4c:60:de:d0:f7:4b'
p321
S'69.94.209.214'
p322
S'4.71.254.140'
p323
S'2012-10-13 21:58:40'
p324
F68364.399999999994
tp325
a(S'4c:60:de:d0:f7:4b'
p326
S'69.94.209.214'
p327
S'4.71.254.140'
p328
S'2012-10-14 02:18:39'
p329
F68967.399999999994
tp330
a(S'4c:60:de:d0:f7:4b'
p331
S'69.94.209.214'
p332
S'4.71.254.153'
p333
S'2012-10-14 08:58:56'
p334
F67853.800000000003
tp335
a(S'4c:60:de:d0:f7:4b'
p336
S'69.94.209.214'
p337
S'4.71.254.140'
p338
S'2012-10-14 13:18:41'
p339
F67829.399999999994
tp340
a(S'4c:60:de:d0:f7:4b'
p341
S'69.94.209.214'
p342
S'4.71.254.153'
p343
S'2012-10-14 17:38:44'
p344
F67427.800000000003
tp345
a(S'4c:60:de:d0:f7:4b'
p346
S'69.94.209.214'
p347
S'4.71.254.140'
p348
S'2012-10-14 21:58:37'
p349
F68305.699999999997
tp350
a.