(lp0
(S'74:44:01:93:62:28'
p1
S'203.178.130.236'
p2
S'122.167.82.59'
p3
S'2012-10-02 01:37:35'
p4
F3953.5999999999999
tp5
a(S'74:44:01:93:62:28'
p6
S'203.178.130.210'
p7
S'122.167.82.59'
p8
S'2012-10-02 05:57:36'
p9
F3964.2399999999998
tp10
a(S'74:44:01:93:62:28'
p11
S'203.178.130.223'
p12
S'122.167.82.59'
p13
S'2012-10-02 08:17:37'
p14
F3941.5700000000002
tp15
a(S'74:44:01:93:62:28'
p16
S'203.178.130.223'
p17
S'122.167.82.59'
p18
S'2012-10-02 13:37:47'
p19
F6379.7399999999998
tp20
a(S'74:44:01:93:62:28'
p21
S'203.178.130.223'
p22
S'122.167.82.59'
p23
S'2012-10-02 19:57:35'
p24
F4018.9299999999998
tp25
a(S'74:44:01:93:62:28'
p26
S'203.178.130.223'
p27
S'122.167.82.59'
p28
S'2012-10-03 04:37:34'
p29
F3955.9000000000001
tp30
a(S'74:44:01:93:62:28'
p31
S'203.178.130.223'
p32
S'122.167.82.59'
p33
S'2012-10-03 08:57:41'
p34
F3879.0999999999999
tp35
a(S'74:44:01:93:62:28'
p36
S'203.178.130.223'
p37
S'122.167.82.59'
p38
S'2012-10-03 11:17:36'
p39
F3430.9099999999999
tp40
a(S'74:44:01:93:62:28'
p41
S'203.178.130.223'
p42
S'122.167.82.59'
p43
S'2012-10-03 15:37:36'
p44
F3948.23
tp45
a(S'74:44:01:93:62:28'
p46
S'203.178.130.223'
p47
S'122.167.82.59'
p48
S'2012-10-03 19:57:35'
p49
F3941.3099999999999
tp50
a(S'74:44:01:93:62:28'
p51
S'203.178.130.236'
p52
S'122.167.82.59'
p53
S'2012-10-04 00:18:23'
p54
F3997.7800000000002
tp55
a(S'74:44:01:93:62:28'
p56
S'203.178.130.210'
p57
S'122.167.82.59'
p58
S'2012-10-04 04:37:38'
p59
F4146.0100000000002
tp60
a(S'74:44:01:93:62:28'
p61
S'203.178.130.236'
p62
S'122.167.82.59'
p63
S'2012-10-04 08:57:39'
p64
F4485.3999999999996
tp65
a(S'74:44:01:93:62:28'
p66
S'203.178.130.210'
p67
S'122.167.82.59'
p68
S'2012-10-04 11:17:38'
p69
F4170.6599999999999
tp70
a(S'74:44:01:93:62:28'
p71
S'203.178.130.236'
p72
S'122.167.82.59'
p73
S'2012-10-04 15:37:47'
p74
F5445.1599999999999
tp75
a(S'74:44:01:93:62:28'
p76
S'203.178.130.210'
p77
S'122.167.82.59'
p78
S'2012-10-04 19:57:35'
p79
F4003.1300000000001
tp80
a(S'74:44:01:93:62:28'
p81
S'203.178.130.223'
p82
S'122.167.82.59'
p83
S'2012-10-05 00:18:10'
p84
F3915.6100000000001
tp85
a(S'74:44:01:93:62:28'
p86
S'203.178.130.236'
p87
S'122.167.82.59'
p88
S'2012-10-05 04:37:37'
p89
F3950.0900000000001
tp90
a(S'74:44:01:93:62:28'
p91
S'203.178.130.236'
p92
S'122.167.82.59'
p93
S'2012-10-05 08:57:39'
p94
F3990.6199999999999
tp95
a(S'74:44:01:93:62:28'
p96
S'203.178.130.210'
p97
S'122.167.82.59'
p98
S'2012-10-05 11:17:37'
p99
F3795.0900000000001
tp100
a(S'74:44:01:93:62:28'
p101
S'203.178.130.210'
p102
S'122.167.82.59'
p103
S'2012-10-05 21:06:34'
p104
F3967.3600000000001
tp105
a(S'74:44:01:93:62:28'
p106
S'203.178.130.223'
p107
S'122.167.82.59'
p108
S'2012-10-06 01:27:13'
p109
F3929.9699999999998
tp110
a(S'74:44:01:93:62:28'
p111
S'203.178.130.210'
p112
S'122.167.82.59'
p113
S'2012-10-06 11:06:37'
p114
F3845.3400000000001
tp115
a(S'74:44:01:93:62:28'
p116
S'203.178.130.210'
p117
S'122.167.82.59'
p118
S'2012-10-06 13:26:38'
p119
F4383.8999999999996
tp120
a(S'74:44:01:93:62:28'
p121
S'203.178.130.236'
p122
S'122.167.82.59'
p123
S'2012-10-06 17:46:36'
p124
F3879.73
tp125
a(S'74:44:01:93:62:28'
p126
S'203.178.130.223'
p127
S'122.167.82.59'
p128
S'2012-10-06 22:06:33'
p129
F3973.9000000000001
tp130
a(S'74:44:01:93:62:28'
p131
S'203.178.130.223'
p132
S'122.167.82.59'
p133
S'2012-10-07 02:27:18'
p134
F4419.9300000000003
tp135
a(S'74:44:01:93:62:28'
p136
S'203.178.130.210'
p137
S'122.167.82.59'
p138
S'2012-10-07 06:46:39'
p139
F3976.02
tp140
a(S'74:44:01:93:62:28'
p141
S'203.178.130.236'
p142
S'122.167.82.59'
p143
S'2012-10-07 13:06:51'
p144
F3766.6500000000001
tp145
a(S'74:44:01:93:62:28'
p146
S'203.178.130.210'
p147
S'122.167.82.59'
p148
S'2012-10-07 16:26:51'
p149
F4961.4799999999996
tp150
a(S'74:44:01:93:62:28'
p151
S'203.178.130.210'
p152
S'122.167.82.59'
p153
S'2012-10-07 20:46:40'
p154
F3886.1999999999998
tp155
a(S'74:44:01:93:62:28'
p156
S'203.178.130.223'
p157
S'122.167.82.59'
p158
S'2012-10-08 01:06:39'
p159
F3927.75
tp160
a(S'74:44:01:93:62:28'
p161
S'203.178.130.223'
p162
S'122.178.233.191'
p163
S'2012-10-08 06:37:31'
p164
F5269.3800000000001
tp165
a(S'74:44:01:93:62:28'
p166
S'203.178.130.223'
p167
S'122.178.233.191'
p168
S'2012-10-08 10:56:37'
p169
F3788.5700000000002
tp170
a(S'74:44:01:93:62:28'
p171
S'203.178.130.223'
p172
S'122.178.233.191'
p173
S'2012-10-08 15:16:40'
p174
F3972.6500000000001
tp175
a(S'74:44:01:93:62:28'
p176
S'203.178.130.236'
p177
S'122.178.233.191'
p178
S'2012-10-08 17:36:44'
p179
F4610.1700000000001
tp180
a(S'74:44:01:93:62:28'
p181
S'203.178.130.236'
p182
S'122.178.233.191'
p183
S'2012-10-08 21:56:35'
p184
F3941.7800000000002
tp185
a(S'74:44:01:93:62:28'
p186
S'203.178.130.236'
p187
S'122.178.233.191'
p188
S'2012-10-09 06:36:56'
p189
F3911.48
tp190
a(S'74:44:01:93:62:28'
p191
S'203.178.130.210'
p192
S'122.178.249.206'
p193
S'2012-10-09 11:56:34'
p194
F3896.77
tp195
a(S'74:44:01:93:62:28'
p196
S'203.178.130.236'
p197
S'122.178.249.206'
p198
S'2012-10-09 17:16:38'
p199
F3753.29
tp200
a(S'74:44:01:93:62:28'
p201
S'203.178.130.223'
p202
S'122.178.249.206'
p203
S'2012-10-09 19:36:36'
p204
F3898.8499999999999
tp205
a(S'74:44:01:93:62:28'
p206
S'203.178.130.236'
p207
S'122.178.249.206'
p208
S'2012-10-09 23:56:38'
p209
F3890.2600000000002
tp210
a(S'74:44:01:93:62:28'
p211
S'203.178.130.236'
p212
S'122.178.249.206'
p213
S'2012-10-10 04:16:35'
p214
F3875.9099999999999
tp215
a(S'74:44:01:93:62:28'
p216
S'203.178.130.223'
p217
S'122.178.249.206'
p218
S'2012-10-10 12:56:35'
p219
F3875.5900000000001
tp220
a(S'74:44:01:93:62:28'
p221
S'203.178.130.210'
p222
S'122.178.249.206'
p223
S'2012-10-10 23:56:34'
p224
F3900.1799999999998
tp225
a(S'74:44:01:93:62:28'
p226
S'203.178.130.223'
p227
S'122.178.249.206'
p228
S'2012-10-11 04:16:34'
p229
F3935.6999999999998
tp230
a(S'74:44:01:93:62:28'
p231
S'203.178.130.223'
p232
S'122.178.249.206'
p233
S'2012-10-11 08:37:10'
p234
F4552.9200000000001
tp235
a(S'74:44:01:93:62:28'
p236
S'203.178.130.236'
p237
S'122.178.249.206'
p238
S'2012-10-11 12:56:46'
p239
F3951.5500000000002
tp240
a(S'74:44:01:93:62:28'
p241
S'203.178.130.210'
p242
S'122.178.249.206'
p243
S'2012-10-11 17:16:39'
p244
F3909.4499999999998
tp245
a(S'74:44:01:93:62:28'
p246
S'203.178.130.223'
p247
S'122.178.249.206'
p248
S'2012-10-11 19:36:33'
p249
F3972.6799999999998
tp250
a(S'74:44:01:93:62:28'
p251
S'203.178.130.210'
p252
S'122.178.249.206'
p253
S'2012-10-11 23:56:36'
p254
F3934.0700000000002
tp255
a(S'74:44:01:93:62:28'
p256
S'203.178.130.210'
p257
S'122.178.249.206'
p258
S'2012-10-12 04:16:38'
p259
F3943.3699999999999
tp260
a(S'74:44:01:93:62:28'
p261
S'203.178.130.210'
p262
S'122.178.249.206'
p263
S'2012-10-12 09:37:07'
p264
F3934.6100000000001
tp265
a(S'74:44:01:93:62:28'
p266
S'203.178.130.210'
p267
S'122.172.254.119'
p268
S'2012-10-12 14:05:37'
p269
F3959.8699999999999
tp270
a(S'74:44:01:93:62:28'
p271
S'203.178.130.210'
p272
S'122.172.254.119'
p273
S'2012-10-12 19:25:36'
p274
F3851.04
tp275
a(S'74:44:01:93:62:28'
p276
S'203.178.130.236'
p277
S'122.172.254.119'
p278
S'2012-10-13 02:05:36'
p279
F3945.6199999999999
tp280
a(S'74:44:01:93:62:28'
p281
S'203.178.130.236'
p282
S'122.172.254.119'
p283
S'2012-10-13 06:25:51'
p284
F5405.71
tp285
a(S'74:44:01:93:62:28'
p286
S'203.178.130.210'
p287
S'122.172.254.119'
p288
S'2012-10-13 11:46:41'
p289
F2124.5799999999999
tp290
a(S'74:44:01:93:62:28'
p291
S'203.178.130.210'
p292
S'122.172.254.119'
p293
S'2012-10-13 16:05:45'
p294
F2092.8499999999999
tp295
a(S'74:44:01:93:62:28'
p296
S'203.178.130.223'
p297
S'122.172.254.119'
p298
S'2012-10-13 20:25:36'
p299
F3872.9099999999999
tp300
a(S'74:44:01:93:62:28'
p301
S'203.178.130.236'
p302
S'122.172.254.119'
p303
S'2012-10-13 22:45:35'
p304
F3947.0
tp305
a(S'74:44:01:93:62:28'
p306
S'203.178.130.210'
p307
S'122.172.254.119'
p308
S'2012-10-14 03:05:35'
p309
F3916.9299999999998
tp310
a(S'74:44:01:93:62:28'
p311
S'203.178.130.223'
p312
S'122.172.254.119'
p313
S'2012-10-14 07:25:24'
p314
F3932.8299999999999
tp315
a(S'74:44:01:93:62:28'
p316
S'203.178.130.223'
p317
S'122.172.254.119'
p318
S'2012-10-14 11:47:07'
p319
F3410.8899999999999
tp320
a(S'74:44:01:93:62:28'
p321
S'203.178.130.236'
p322
S'122.172.254.119'
p323
S'2012-10-14 16:05:55'
p324
F5060.6400000000003
tp325
a(S'74:44:01:93:62:28'
p326
S'203.178.130.236'
p327
S'122.172.254.119'
p328
S'2012-10-14 20:25:46'
p329
F3910.8000000000002
tp330
a(S'74:44:01:93:62:28'
p331
S'203.178.130.223'
p332
S'122.172.254.119'
p333
S'2012-10-14 22:45:28'
p334
F3567.9400000000001
tp335
a.