(lp0
(S'a0:21:b7:a9:bf:50'
p1
S'10.0.1.24'
p2
S'143.215.131.173'
p3
S'2012-10-02 01:48:13'
p4
F1471.5799999999999
tp5
a(S'a0:21:b7:a9:bf:50'
p6
S'10.0.1.24'
p7
S'143.215.131.173'
p8
S'2012-10-02 06:11:00'
p9
F1457.28
tp10
a(S'a0:21:b7:a9:bf:50'
p11
S'10.0.1.24'
p12
S'143.215.131.173'
p13
S'2012-10-02 10:42:57'
p14
F1475.1300000000001
tp15
a(S'a0:21:b7:a9:bf:50'
p16
S'10.0.1.24'
p17
S'143.215.131.173'
p18
S'2012-10-02 14:59:06'
p19
F1481.5699999999999
tp20
a(S'a0:21:b7:a9:bf:50'
p21
S'10.0.1.24'
p22
S'143.215.131.173'
p23
S'2012-10-02 19:18:04'
p24
F1475.1700000000001
tp25
a(S'a0:21:b7:a9:bf:50'
p26
S'10.0.1.24'
p27
S'143.215.131.173'
p28
S'2012-10-02 21:38:19'
p29
F1470.45
tp30
a(S'a0:21:b7:a9:bf:50'
p31
S'10.0.1.24'
p32
S'143.215.131.173'
p33
S'2012-10-03 01:59:58'
p34
F1373.46
tp35
a(S'a0:21:b7:a9:bf:50'
p36
S'10.0.1.24'
p37
S'143.215.131.173'
p38
S'2012-10-03 06:21:03'
p39
F1370.03
tp40
a(S'a0:21:b7:a9:bf:50'
p41
S'10.0.1.24'
p42
S'143.215.131.173'
p43
S'2012-10-03 10:41:31'
p44
F1483.3199999999999
tp45
a(S'a0:21:b7:a9:bf:50'
p46
S'10.0.1.24'
p47
S'143.215.131.173'
p48
S'2012-10-03 14:58:08'
p49
F1478.3399999999999
tp50
a(S'a0:21:b7:a9:bf:50'
p51
S'10.0.1.24'
p52
S'143.215.131.173'
p53
S'2012-10-03 19:18:11'
p54
F1476.26
tp55
a(S'a0:21:b7:a9:bf:50'
p56
S'10.0.1.24'
p57
S'143.215.131.173'
p58
S'2012-10-03 21:38:37'
p59
F1483.53
tp60
a(S'a0:21:b7:a9:bf:50'
p61
S'10.0.1.24'
p62
S'143.215.131.173'
p63
S'2012-10-04 02:00:09'
p64
F1470.0899999999999
tp65
a(S'a0:21:b7:a9:bf:50'
p66
S'10.0.1.24'
p67
S'143.215.131.173'
p68
S'2012-10-04 06:23:18'
p69
F1480.3099999999999
tp70
a(S'a0:21:b7:a9:bf:50'
p71
S'10.0.1.24'
p72
S'143.215.131.173'
p73
S'2012-10-04 10:41:48'
p74
F1478.6199999999999
tp75
a(S'a0:21:b7:a9:bf:50'
p76
S'10.0.1.24'
p77
S'143.215.131.173'
p78
S'2012-10-04 14:58:21'
p79
F1483.27
tp80
a(S'a0:21:b7:a9:bf:50'
p81
S'10.0.1.24'
p82
S'143.215.131.173'
p83
S'2012-10-04 19:18:08'
p84
F1484.1700000000001
tp85
a(S'a0:21:b7:a9:bf:50'
p86
S'10.0.1.24'
p87
S'143.215.131.173'
p88
S'2012-10-04 21:38:46'
p89
F1473.55
tp90
a(S'a0:21:b7:a9:bf:50'
p91
S'10.0.1.24'
p92
S'143.215.131.173'
p93
S'2012-10-05 01:59:40'
p94
F1484.49
tp95
a(S'a0:21:b7:a9:bf:50'
p96
S'10.0.1.24'
p97
S'143.215.131.173'
p98
S'2012-10-05 06:23:09'
p99
F1475.0799999999999
tp100
a(S'a0:21:b7:a9:bf:50'
p101
S'10.0.1.24'
p102
S'143.215.131.173'
p103
S'2012-10-05 10:40:59'
p104
F1485.8099999999999
tp105
a(S'a0:21:b7:a9:bf:50'
p106
S'10.0.1.24'
p107
S'143.215.131.173'
p108
S'2012-10-05 15:11:04'
p109
F1489.1300000000001
tp110
a(S'a0:21:b7:a9:bf:50'
p111
S'10.0.1.24'
p112
S'143.215.131.173'
p113
S'2012-10-05 19:28:20'
p114
F1470.6099999999999
tp115
a(S'a0:21:b7:a9:bf:50'
p116
S'10.0.1.24'
p117
S'143.215.131.173'
p118
S'2012-10-05 22:01:09'
p119
F1484.96
tp120
a(S'a0:21:b7:a9:bf:50'
p121
S'10.0.1.24'
p122
S'143.215.131.173'
p123
S'2012-10-06 02:18:18'
p124
F1477.22
tp125
a(S'a0:21:b7:a9:bf:50'
p126
S'10.0.1.24'
p127
S'143.215.131.173'
p128
S'2012-10-06 06:41:01'
p129
F1479.6700000000001
tp130
a(S'a0:21:b7:a9:bf:50'
p131
S'10.0.1.24'
p132
S'143.215.131.173'
p133
S'2012-10-06 11:00:33'
p134
F1475.6700000000001
tp135
a(S'a0:21:b7:a9:bf:50'
p136
S'10.0.1.24'
p137
S'143.215.131.173'
p138
S'2012-10-06 15:28:37'
p139
F1482.3599999999999
tp140
a(S'a0:21:b7:a9:bf:50'
p141
S'10.0.1.24'
p142
S'143.215.131.173'
p143
S'2012-10-06 19:58:56'
p144
F1457.79
tp145
a(S'a0:21:b7:a9:bf:50'
p146
S'10.0.1.24'
p147
S'143.215.131.173'
p148
S'2012-10-06 22:20:26'
p149
F1477.0799999999999
tp150
a(S'a0:21:b7:a9:bf:50'
p151
S'10.0.1.24'
p152
S'143.215.131.173'
p153
S'2012-10-07 02:38:45'
p154
F1478.73
tp155
a(S'a0:21:b7:a9:bf:50'
p156
S'10.0.1.24'
p157
S'143.215.131.173'
p158
S'2012-10-07 07:00:55'
p159
F1474.4100000000001
tp160
a(S'a0:21:b7:a9:bf:50'
p161
S'10.0.1.24'
p162
S'143.215.131.173'
p163
S'2012-10-07 11:42:23'
p164
F1484.99
tp165
a(S'a0:21:b7:a9:bf:50'
p166
S'10.0.1.24'
p167
S'143.215.131.173'
p168
S'2012-10-07 15:59:20'
p169
F1489.01
tp170
a(S'a0:21:b7:a9:bf:50'
p171
S'10.0.1.24'
p172
S'143.215.131.173'
p173
S'2012-10-07 20:18:30'
p174
F1478.1099999999999
tp175
a(S'a0:21:b7:a9:bf:50'
p176
S'10.0.1.24'
p177
S'143.215.131.173'
p178
S'2012-10-07 22:40:52'
p179
F1466.26
tp180
a(S'a0:21:b7:a9:bf:50'
p181
S'10.0.1.24'
p182
S'143.215.131.173'
p183
S'2012-10-08 02:58:25'
p184
F1459.8599999999999
tp185
a(S'a0:21:b7:a9:bf:50'
p186
S'10.0.1.24'
p187
S'143.215.131.173'
p188
S'2012-10-08 07:22:11'
p189
F1481.1099999999999
tp190
a(S'a0:21:b7:a9:bf:50'
p191
S'10.0.1.24'
p192
S'143.215.131.173'
p193
S'2012-10-08 11:42:00'
p194
F1481.6800000000001
tp195
a(S'a0:21:b7:a9:bf:50'
p196
S'10.0.1.24'
p197
S'143.215.131.173'
p198
S'2012-10-08 15:59:55'
p199
F1478.79
tp200
a(S'a0:21:b7:a9:bf:50'
p201
S'10.0.1.24'
p202
S'143.215.131.173'
p203
S'2012-10-08 20:19:08'
p204
F1485.9300000000001
tp205
a(S'a0:21:b7:a9:bf:50'
p206
S'10.0.1.24'
p207
S'143.215.131.173'
p208
S'2012-10-08 22:41:18'
p209
F1485.8299999999999
tp210
a(S'a0:21:b7:a9:bf:50'
p211
S'10.0.1.24'
p212
S'143.215.131.173'
p213
S'2012-10-09 02:58:33'
p214
F1485.1600000000001
tp215
a(S'a0:21:b7:a9:bf:50'
p216
S'10.0.1.24'
p217
S'143.215.131.173'
p218
S'2012-10-09 07:22:36'
p219
F1486.01
tp220
a(S'a0:21:b7:a9:bf:50'
p221
S'10.0.1.24'
p222
S'143.215.131.173'
p223
S'2012-10-09 11:42:10'
p224
F1477.8699999999999
tp225
a(S'a0:21:b7:a9:bf:50'
p226
S'10.0.1.24'
p227
S'143.215.131.173'
p228
S'2012-10-09 15:59:58'
p229
F1477.1800000000001
tp230
a(S'a0:21:b7:a9:bf:50'
p231
S'10.0.1.24'
p232
S'143.215.131.173'
p233
S'2012-10-09 20:18:50'
p234
F1490.8
tp235
a(S'a0:21:b7:a9:bf:50'
p236
S'10.0.1.24'
p237
S'143.215.131.173'
p238
S'2012-10-09 22:38:46'
p239
F1482.51
tp240
a(S'a0:21:b7:a9:bf:50'
p241
S'10.0.1.24'
p242
S'143.215.131.173'
p243
S'2012-10-10 02:58:46'
p244
F1463.2
tp245
a(S'a0:21:b7:a9:bf:50'
p246
S'10.0.1.24'
p247
S'143.215.131.173'
p248
S'2012-10-10 07:22:36'
p249
F1475.8599999999999
tp250
a(S'a0:21:b7:a9:bf:50'
p251
S'10.0.1.24'
p252
S'143.215.131.173'
p253
S'2012-10-10 11:51:09'
p254
F1440.45
tp255
a(S'a0:21:b7:a9:bf:50'
p256
S'10.0.1.24'
p257
S'143.215.131.173'
p258
S'2012-10-10 20:28:41'
p259
F1478.5599999999999
tp260
a(S'a0:21:b7:a9:bf:50'
p261
S'10.0.1.24'
p262
S'143.215.131.173'
p263
S'2012-10-11 03:08:34'
p264
F1484.8299999999999
tp265
a(S'a0:21:b7:a9:bf:50'
p266
S'10.0.1.24'
p267
S'143.215.131.173'
p268
S'2012-10-11 07:31:29'
p269
F1491.5
tp270
a(S'a0:21:b7:a9:bf:50'
p271
S'10.0.1.24'
p272
S'143.215.131.173'
p273
S'2012-10-11 11:50:33'
p274
F1456.01
tp275
a(S'a0:21:b7:a9:bf:50'
p276
S'10.0.1.24'
p277
S'143.215.131.173'
p278
S'2012-10-11 16:09:39'
p279
F1482.1300000000001
tp280
a(S'a0:21:b7:a9:bf:50'
p281
S'10.0.1.24'
p282
S'143.215.131.173'
p283
S'2012-10-11 20:29:03'
p284
F1485.1400000000001
tp285
a(S'a0:21:b7:a9:bf:50'
p286
S'10.0.1.24'
p287
S'143.215.131.173'
p288
S'2012-10-11 22:49:04'
p289
F1003.02
tp290
a(S'a0:21:b7:a9:bf:50'
p291
S'10.0.1.24'
p292
S'143.215.131.173'
p293
S'2012-10-12 03:08:40'
p294
F1044.6900000000001
tp295
a(S'a0:21:b7:a9:bf:50'
p296
S'10.0.1.24'
p297
S'143.215.131.173'
p298
S'2012-10-12 07:31:49'
p299
F1125.7
tp300
a(S'a0:21:b7:a9:bf:50'
p301
S'10.0.1.24'
p302
S'143.215.131.173'
p303
S'2012-10-12 11:50:35'
p304
F1428.6099999999999
tp305
a(S'a0:21:b7:a9:bf:50'
p306
S'10.0.1.24'
p307
S'143.215.131.173'
p308
S'2012-10-12 16:09:49'
p309
F1431.6500000000001
tp310
a(S'a0:21:b7:a9:bf:50'
p311
S'10.0.1.24'
p312
S'143.215.131.173'
p313
S'2012-10-12 20:38:22'
p314
F1480.9100000000001
tp315
a(S'a0:21:b7:a9:bf:50'
p316
S'10.0.1.24'
p317
S'143.215.131.173'
p318
S'2012-10-12 22:59:37'
p319
F1482.8299999999999
tp320
a(S'a0:21:b7:a9:bf:50'
p321
S'10.0.1.24'
p322
S'143.215.131.173'
p323
S'2012-10-13 03:18:34'
p324
F1492.0899999999999
tp325
a(S'a0:21:b7:a9:bf:50'
p326
S'10.0.1.24'
p327
S'143.215.131.173'
p328
S'2012-10-13 07:41:04'
p329
F1475.1900000000001
tp330
a(S'a0:21:b7:a9:bf:50'
p331
S'10.0.1.24'
p332
S'143.215.131.173'
p333
S'2012-10-13 12:00:33'
p334
F1491.21
tp335
a(S'a0:21:b7:a9:bf:50'
p336
S'10.0.1.24'
p337
S'143.215.131.173'
p338
S'2012-10-13 16:38:16'
p339
F1487.97
tp340
a(S'a0:21:b7:a9:bf:50'
p341
S'10.0.1.24'
p342
S'143.215.131.173'
p343
S'2012-10-13 20:58:31'
p344
F1486.4100000000001
tp345
a(S'a0:21:b7:a9:bf:50'
p346
S'10.0.1.24'
p347
S'143.215.131.173'
p348
S'2012-10-13 23:18:44'
p349
F1477.9100000000001
tp350
a(S'a0:21:b7:a9:bf:50'
p351
S'10.0.1.24'
p352
S'143.215.131.173'
p353
S'2012-10-14 03:38:34'
p354
F1448.1300000000001
tp355
a(S'a0:21:b7:a9:bf:50'
p356
S'10.0.1.24'
p357
S'143.215.131.173'
p358
S'2012-10-14 12:23:10'
p359
F1458.4300000000001
tp360
a(S'a0:21:b7:a9:bf:50'
p361
S'10.0.1.24'
p362
S'143.215.131.173'
p363
S'2012-10-14 16:38:22'
p364
F1464.22
tp365
a(S'a0:21:b7:a9:bf:50'
p366
S'10.0.1.24'
p367
S'143.215.131.173'
p368
S'2012-10-14 20:58:45'
p369
F1407.6700000000001
tp370
a(S'a0:21:b7:a9:bf:50'
p371
S'10.0.1.24'
p372
S'143.215.131.173'
p373
S'2012-10-14 23:19:39'
p374
F1493.55
tp375
a.