(lp0
(S'a0:21:b7:a9:bf:50'
p1
S'143.215.131.173'
p2
S'10.0.1.24'
p3
S'2012-10-02 01:38:11'
p4
F11390.0
tp5
a(S'a0:21:b7:a9:bf:50'
p6
S'143.215.131.173'
p7
S'10.0.1.24'
p8
S'2012-10-02 05:58:07'
p9
F11455.6
tp10
a(S'a0:21:b7:a9:bf:50'
p11
S'143.215.131.173'
p12
S'10.0.1.24'
p13
S'2012-10-02 10:23:59'
p14
F11481.5
tp15
a(S'a0:21:b7:a9:bf:50'
p16
S'143.215.131.173'
p17
S'10.0.1.24'
p18
S'2012-10-02 14:49:35'
p19
F11465.5
tp20
a(S'a0:21:b7:a9:bf:50'
p21
S'143.215.131.173'
p22
S'10.0.1.24'
p23
S'2012-10-02 19:08:08'
p24
F11460.0
tp25
a(S'a0:21:b7:a9:bf:50'
p26
S'143.215.131.173'
p27
S'10.0.1.24'
p28
S'2012-10-02 21:28:09'
p29
F9365.7399999999998
tp30
a(S'a0:21:b7:a9:bf:50'
p31
S'143.215.131.173'
p32
S'10.0.1.24'
p33
S'2012-10-03 01:48:04'
p34
F10994.5
tp35
a(S'a0:21:b7:a9:bf:50'
p36
S'143.215.131.173'
p37
S'10.0.1.24'
p38
S'2012-10-03 06:08:12'
p39
F11333.4
tp40
a(S'a0:21:b7:a9:bf:50'
p41
S'143.215.131.173'
p42
S'10.0.1.24'
p43
S'2012-10-03 10:31:17'
p44
F11447.1
tp45
a(S'a0:21:b7:a9:bf:50'
p46
S'143.215.131.173'
p47
S'10.0.1.24'
p48
S'2012-10-03 14:49:37'
p49
F11463.1
tp50
a(S'a0:21:b7:a9:bf:50'
p51
S'143.215.131.173'
p52
S'10.0.1.24'
p53
S'2012-10-03 19:08:31'
p54
F11462.200000000001
tp55
a(S'a0:21:b7:a9:bf:50'
p56
S'143.215.131.173'
p57
S'10.0.1.24'
p58
S'2012-10-03 21:31:19'
p59
F11402.0
tp60
a(S'a0:21:b7:a9:bf:50'
p61
S'143.215.131.173'
p62
S'10.0.1.24'
p63
S'2012-10-04 01:48:05'
p64
F11278.700000000001
tp65
a(S'a0:21:b7:a9:bf:50'
p66
S'143.215.131.173'
p67
S'10.0.1.24'
p68
S'2012-10-04 06:08:19'
p69
F11386.200000000001
tp70
a(S'a0:21:b7:a9:bf:50'
p71
S'143.215.131.173'
p72
S'10.0.1.24'
p73
S'2012-10-04 10:31:06'
p74
F11478.9
tp75
a(S'a0:21:b7:a9:bf:50'
p76
S'143.215.131.173'
p77
S'10.0.1.24'
p78
S'2012-10-04 14:49:45'
p79
F11467.6
tp80
a(S'a0:21:b7:a9:bf:50'
p81
S'143.215.131.173'
p82
S'10.0.1.24'
p83
S'2012-10-04 19:08:18'
p84
F11379.700000000001
tp85
a(S'a0:21:b7:a9:bf:50'
p86
S'143.215.131.173'
p87
S'10.0.1.24'
p88
S'2012-10-04 21:29:15'
p89
F11210.5
tp90
a(S'a0:21:b7:a9:bf:50'
p91
S'143.215.131.173'
p92
S'10.0.1.24'
p93
S'2012-10-05 01:48:08'
p94
F11468.5
tp95
a(S'a0:21:b7:a9:bf:50'
p96
S'143.215.131.173'
p97
S'10.0.1.24'
p98
S'2012-10-05 06:08:33'
p99
F11465.0
tp100
a(S'a0:21:b7:a9:bf:50'
p101
S'143.215.131.173'
p102
S'10.0.1.24'
p103
S'2012-10-05 10:31:05'
p104
F11465.9
tp105
a(S'a0:21:b7:a9:bf:50'
p106
S'143.215.131.173'
p107
S'10.0.1.24'
p108
S'2012-10-05 14:52:20'
p109
F11459.6
tp110
a(S'a0:21:b7:a9:bf:50'
p111
S'143.215.131.173'
p112
S'10.0.1.24'
p113
S'2012-10-05 19:18:11'
p114
F9443.4599999999991
tp115
a(S'a0:21:b7:a9:bf:50'
p116
S'143.215.131.173'
p117
S'10.0.1.24'
p118
S'2012-10-05 21:48:22'
p119
F11323.5
tp120
a(S'a0:21:b7:a9:bf:50'
p121
S'143.215.131.173'
p122
S'10.0.1.24'
p123
S'2012-10-06 02:08:32'
p124
F11472.9
tp125
a(S'a0:21:b7:a9:bf:50'
p126
S'143.215.131.173'
p127
S'10.0.1.24'
p128
S'2012-10-06 06:28:19'
p129
F11452.799999999999
tp130
a(S'a0:21:b7:a9:bf:50'
p131
S'143.215.131.173'
p132
S'10.0.1.24'
p133
S'2012-10-06 10:53:01'
p134
F11463.6
tp135
a(S'a0:21:b7:a9:bf:50'
p136
S'143.215.131.173'
p137
S'10.0.1.24'
p138
S'2012-10-06 15:18:04'
p139
F11458.299999999999
tp140
a(S'a0:21:b7:a9:bf:50'
p141
S'143.215.131.173'
p142
S'10.0.1.24'
p143
S'2012-10-06 19:49:54'
p144
F9368.9599999999991
tp145
a(S'a0:21:b7:a9:bf:50'
p146
S'143.215.131.173'
p147
S'10.0.1.24'
p148
S'2012-10-06 22:09:34'
p149
F11464.1
tp150
a(S'a0:21:b7:a9:bf:50'
p151
S'143.215.131.173'
p152
S'10.0.1.24'
p153
S'2012-10-07 02:29:31'
p154
F11449.799999999999
tp155
a(S'a0:21:b7:a9:bf:50'
p156
S'143.215.131.173'
p157
S'10.0.1.24'
p158
S'2012-10-07 06:48:13'
p159
F11477.1
tp160
a(S'a0:21:b7:a9:bf:50'
p161
S'143.215.131.173'
p162
S'10.0.1.24'
p163
S'2012-10-07 11:31:11'
p164
F11448.799999999999
tp165
a(S'a0:21:b7:a9:bf:50'
p166
S'143.215.131.173'
p167
S'10.0.1.24'
p168
S'2012-10-07 15:48:44'
p169
F11475.200000000001
tp170
a(S'a0:21:b7:a9:bf:50'
p171
S'143.215.131.173'
p172
S'10.0.1.24'
p173
S'2012-10-07 20:08:54'
p174
F11473.5
tp175
a(S'a0:21:b7:a9:bf:50'
p176
S'143.215.131.173'
p177
S'10.0.1.24'
p178
S'2012-10-07 22:28:51'
p179
F11481.6
tp180
a(S'a0:21:b7:a9:bf:50'
p181
S'143.215.131.173'
p182
S'10.0.1.24'
p183
S'2012-10-08 02:48:31'
p184
F9814.3099999999995
tp185
a(S'a0:21:b7:a9:bf:50'
p186
S'143.215.131.173'
p187
S'10.0.1.24'
p188
S'2012-10-08 07:08:25'
p189
F11426.299999999999
tp190
a(S'a0:21:b7:a9:bf:50'
p191
S'143.215.131.173'
p192
S'10.0.1.24'
p193
S'2012-10-08 11:32:02'
p194
F11461.9
tp195
a(S'a0:21:b7:a9:bf:50'
p196
S'143.215.131.173'
p197
S'10.0.1.24'
p198
S'2012-10-08 15:48:41'
p199
F11471.700000000001
tp200
a(S'a0:21:b7:a9:bf:50'
p201
S'143.215.131.173'
p202
S'10.0.1.24'
p203
S'2012-10-08 20:08:54'
p204
F11467.5
tp205
a(S'a0:21:b7:a9:bf:50'
p206
S'143.215.131.173'
p207
S'10.0.1.24'
p208
S'2012-10-08 22:29:33'
p209
F11420.9
tp210
a(S'a0:21:b7:a9:bf:50'
p211
S'143.215.131.173'
p212
S'10.0.1.24'
p213
S'2012-10-09 02:48:58'
p214
F11405.5
tp215
a(S'a0:21:b7:a9:bf:50'
p216
S'143.215.131.173'
p217
S'10.0.1.24'
p218
S'2012-10-09 07:08:49'
p219
F11456.799999999999
tp220
a(S'a0:21:b7:a9:bf:50'
p221
S'143.215.131.173'
p222
S'10.0.1.24'
p223
S'2012-10-09 11:32:34'
p224
F11071.0
tp225
a(S'a0:21:b7:a9:bf:50'
p226
S'143.215.131.173'
p227
S'10.0.1.24'
p228
S'2012-10-09 15:48:54'
p229
F11467.4
tp230
a(S'a0:21:b7:a9:bf:50'
p231
S'143.215.131.173'
p232
S'10.0.1.24'
p233
S'2012-10-09 20:08:54'
p234
F11473.799999999999
tp235
a(S'a0:21:b7:a9:bf:50'
p236
S'143.215.131.173'
p237
S'10.0.1.24'
p238
S'2012-10-09 22:30:25'
p239
F11468.700000000001
tp240
a(S'a0:21:b7:a9:bf:50'
p241
S'143.215.131.173'
p242
S'10.0.1.24'
p243
S'2012-10-10 02:49:16'
p244
F11006.4
tp245
a(S'a0:21:b7:a9:bf:50'
p246
S'143.215.131.173'
p247
S'10.0.1.24'
p248
S'2012-10-10 07:08:24'
p249
F11356.9
tp250
a(S'a0:21:b7:a9:bf:50'
p251
S'143.215.131.173'
p252
S'10.0.1.24'
p253
S'2012-10-10 11:42:16'
p254
F11459.0
tp255
a(S'a0:21:b7:a9:bf:50'
p256
S'143.215.131.173'
p257
S'10.0.1.24'
p258
S'2012-10-10 22:38:11'
p259
F11452.700000000001
tp260
a(S'a0:21:b7:a9:bf:50'
p261
S'143.215.131.173'
p262
S'10.0.1.24'
p263
S'2012-10-11 02:58:37'
p264
F11467.799999999999
tp265
a(S'a0:21:b7:a9:bf:50'
p266
S'143.215.131.173'
p267
S'10.0.1.24'
p268
S'2012-10-11 07:21:12'
p269
F11244.9
tp270
a(S'a0:21:b7:a9:bf:50'
p271
S'143.215.131.173'
p272
S'10.0.1.24'
p273
S'2012-10-11 11:43:20'
p274
F8856.9300000000003
tp275
a(S'a0:21:b7:a9:bf:50'
p276
S'143.215.131.173'
p277
S'10.0.1.24'
p278
S'2012-10-11 15:58:50'
p279
F11425.5
tp280
a(S'a0:21:b7:a9:bf:50'
p281
S'143.215.131.173'
p282
S'10.0.1.24'
p283
S'2012-10-11 20:18:45'
p284
F11469.700000000001
tp285
a(S'a0:21:b7:a9:bf:50'
p286
S'143.215.131.173'
p287
S'10.0.1.24'
p288
S'2012-10-11 22:40:23'
p289
F2253.6100000000001
tp290
a(S'a0:21:b7:a9:bf:50'
p291
S'143.215.131.173'
p292
S'10.0.1.24'
p293
S'2012-10-12 02:58:50'
p294
F2694.6100000000001
tp295
a(S'a0:21:b7:a9:bf:50'
p296
S'143.215.131.173'
p297
S'10.0.1.24'
p298
S'2012-10-12 07:18:39'
p299
F2214.7199999999998
tp300
a(S'a0:21:b7:a9:bf:50'
p301
S'143.215.131.173'
p302
S'10.0.1.24'
p303
S'2012-10-12 11:43:26'
p304
F11142.5
tp305
a(S'a0:21:b7:a9:bf:50'
p306
S'143.215.131.173'
p307
S'10.0.1.24'
p308
S'2012-10-12 15:58:52'
p309
F10561.6
tp310
a(S'a0:21:b7:a9:bf:50'
p311
S'143.215.131.173'
p312
S'10.0.1.24'
p313
S'2012-10-12 20:29:02'
p314
F11454.5
tp315
a(S'a0:21:b7:a9:bf:50'
p316
S'143.215.131.173'
p317
S'10.0.1.24'
p318
S'2012-10-12 22:48:51'
p319
F11470.5
tp320
a(S'a0:21:b7:a9:bf:50'
p321
S'143.215.131.173'
p322
S'10.0.1.24'
p323
S'2012-10-13 03:08:38'
p324
F11470.5
tp325
a(S'a0:21:b7:a9:bf:50'
p326
S'143.215.131.173'
p327
S'10.0.1.24'
p328
S'2012-10-13 07:30:42'
p329
F11471.4
tp330
a(S'a0:21:b7:a9:bf:50'
p331
S'143.215.131.173'
p332
S'10.0.1.24'
p333
S'2012-10-13 11:51:13'
p334
F11420.700000000001
tp335
a(S'a0:21:b7:a9:bf:50'
p336
S'143.215.131.173'
p337
S'10.0.1.24'
p338
S'2012-10-13 16:28:57'
p339
F11433.200000000001
tp340
a(S'a0:21:b7:a9:bf:50'
p341
S'143.215.131.173'
p342
S'10.0.1.24'
p343
S'2012-10-13 20:48:30'
p344
F11476.799999999999
tp345
a(S'a0:21:b7:a9:bf:50'
p346
S'143.215.131.173'
p347
S'10.0.1.24'
p348
S'2012-10-13 23:08:51'
p349
F11484.4
tp350
a(S'a0:21:b7:a9:bf:50'
p351
S'143.215.131.173'
p352
S'10.0.1.24'
p353
S'2012-10-14 03:30:44'
p354
F11459.299999999999
tp355
a(S'a0:21:b7:a9:bf:50'
p356
S'143.215.131.173'
p357
S'10.0.1.24'
p358
S'2012-10-14 16:30:00'
p359
F11404.1
tp360
a(S'a0:21:b7:a9:bf:50'
p361
S'143.215.131.173'
p362
S'10.0.1.24'
p363
S'2012-10-14 20:48:49'
p364
F10761.9
tp365
a(S'a0:21:b7:a9:bf:50'
p366
S'143.215.131.173'
p367
S'10.0.1.24'
p368
S'2012-10-14 23:10:12'
p369
F11453.5
tp370
a.