(lp0
(S'a0:21:b7:a9:c6:55'
p1
S'4.71.254.153'
p2
S'76.111.39.202'
p3
S'2012-10-02 02:02:39'
p4
F19462.5
tp5
a(S'a0:21:b7:a9:c6:55'
p6
S'4.71.254.153'
p7
S'76.111.39.202'
p8
S'2012-10-02 06:22:39'
p9
F20552.400000000001
tp10
a(S'a0:21:b7:a9:c6:55'
p11
S'4.71.254.140'
p12
S'76.111.39.202'
p13
S'2012-10-02 10:42:38'
p14
F20510.799999999999
tp15
a(S'a0:21:b7:a9:c6:55'
p16
S'4.71.254.140'
p17
S'76.111.39.202'
p18
S'2012-10-02 15:02:52'
p19
F20400.0
tp20
a(S'a0:21:b7:a9:c6:55'
p21
S'4.71.254.140'
p22
S'76.111.39.202'
p23
S'2012-10-02 19:22:36'
p24
F20530.400000000001
tp25
a(S'a0:21:b7:a9:c6:55'
p26
S'4.71.254.140'
p27
S'76.111.39.202'
p28
S'2012-10-02 23:42:38'
p29
F20462.900000000001
tp30
a(S'a0:21:b7:a9:c6:55'
p31
S'4.71.254.140'
p32
S'76.111.39.202'
p33
S'2012-10-03 02:02:37'
p34
F19536.599999999999
tp35
a(S'a0:21:b7:a9:c6:55'
p36
S'4.71.254.153'
p37
S'76.111.39.202'
p38
S'2012-10-03 06:22:44'
p39
F18489.5
tp40
a(S'a0:21:b7:a9:c6:55'
p41
S'4.71.254.153'
p42
S'76.111.39.202'
p43
S'2012-10-03 10:42:37'
p44
F20449.0
tp45
a(S'a0:21:b7:a9:c6:55'
p46
S'4.71.254.153'
p47
S'76.111.39.202'
p48
S'2012-10-03 15:02:59'
p49
F20218.099999999999
tp50
a(S'a0:21:b7:a9:c6:55'
p51
S'4.71.254.140'
p52
S'76.111.39.202'
p53
S'2012-10-03 19:22:43'
p54
F18097.400000000001
tp55
a(S'a0:21:b7:a9:c6:55'
p56
S'4.71.254.140'
p57
S'76.111.39.202'
p58
S'2012-10-03 23:42:39'
p59
F20171.900000000001
tp60
a(S'a0:21:b7:a9:c6:55'
p61
S'4.71.254.140'
p62
S'76.111.39.202'
p63
S'2012-10-04 02:02:44'
p64
F18834.400000000001
tp65
a(S'a0:21:b7:a9:c6:55'
p66
S'4.71.254.140'
p67
S'76.111.39.202'
p68
S'2012-10-04 06:22:37'
p69
F20331.700000000001
tp70
a(S'a0:21:b7:a9:c6:55'
p71
S'4.71.254.153'
p72
S'76.111.39.202'
p73
S'2012-10-04 10:42:39'
p74
F20382.400000000001
tp75
a(S'a0:21:b7:a9:c6:55'
p76
S'4.71.254.140'
p77
S'76.111.39.202'
p78
S'2012-10-04 15:02:57'
p79
F20389.5
tp80
a(S'a0:21:b7:a9:c6:55'
p81
S'4.71.254.153'
p82
S'76.111.39.202'
p83
S'2012-10-04 19:22:42'
p84
F20249.700000000001
tp85
a(S'a0:21:b7:a9:c6:55'
p86
S'4.71.254.140'
p87
S'76.111.39.202'
p88
S'2012-10-04 23:42:54'
p89
F19916.5
tp90
a(S'a0:21:b7:a9:c6:55'
p91
S'4.71.254.153'
p92
S'76.111.39.202'
p93
S'2012-10-05 02:02:46'
p94
F19744.0
tp95
a(S'a0:21:b7:a9:c6:55'
p96
S'4.71.254.140'
p97
S'76.111.39.202'
p98
S'2012-10-05 10:51:43'
p99
F20254.200000000001
tp100
a(S'a0:21:b7:a9:c6:55'
p101
S'4.71.254.140'
p102
S'76.111.39.202'
p103
S'2012-10-05 15:11:59'
p104
F19716.200000000001
tp105
a(S'a0:21:b7:a9:c6:55'
p106
S'4.71.254.140'
p107
S'76.111.39.202'
p108
S'2012-10-05 19:31:44'
p109
F20196.099999999999
tp110
a(S'a0:21:b7:a9:c6:55'
p111
S'4.71.254.153'
p112
S'76.111.39.202'
p113
S'2012-10-05 23:51:47'
p114
F20217.700000000001
tp115
a(S'a0:21:b7:a9:c6:55'
p116
S'4.71.254.153'
p117
S'76.111.39.202'
p118
S'2012-10-06 02:11:44'
p119
F20074.299999999999
tp120
a(S'a0:21:b7:a9:c6:55'
p121
S'4.71.254.153'
p122
S'76.111.39.202'
p123
S'2012-10-06 06:31:44'
p124
F20300.599999999999
tp125
a(S'a0:21:b7:a9:c6:55'
p126
S'4.71.254.140'
p127
S'76.111.39.202'
p128
S'2012-10-06 10:51:44'
p129
F20249.0
tp130
a(S'a0:21:b7:a9:c6:55'
p131
S'4.71.254.140'
p132
S'76.111.39.202'
p133
S'2012-10-06 15:12:02'
p134
F19931.299999999999
tp135
a(S'a0:21:b7:a9:c6:55'
p136
S'4.71.254.153'
p137
S'76.111.39.202'
p138
S'2012-10-06 19:31:45'
p139
F19035.5
tp140
a(S'a0:21:b7:a9:c6:55'
p141
S'4.71.254.140'
p142
S'76.111.39.202'
p143
S'2012-10-06 23:51:46'
p144
F20522.099999999999
tp145
a(S'a0:21:b7:a9:c6:55'
p146
S'4.71.254.153'
p147
S'76.111.39.202'
p148
S'2012-10-07 03:50:42'
p149
F19377.400000000001
tp150
a(S'a0:21:b7:a9:c6:55'
p151
S'4.71.254.140'
p152
S'76.111.39.202'
p153
S'2012-10-07 10:10:43'
p154
F20087.099999999999
tp155
a(S'a0:21:b7:a9:c6:55'
p156
S'4.71.254.140'
p157
S'76.111.39.202'
p158
S'2012-10-07 17:00:42'
p159
F20841.099999999999
tp160
a(S'a0:21:b7:a9:c6:55'
p161
S'4.71.254.140'
p162
S'76.111.39.202'
p163
S'2012-10-07 22:00:58'
p164
F20313.900000000001
tp165
a(S'a0:21:b7:a9:c6:55'
p166
S'4.71.254.153'
p167
S'76.111.39.202'
p168
S'2012-10-08 02:20:47'
p169
F20554.099999999999
tp170
a(S'a0:21:b7:a9:c6:55'
p171
S'4.71.254.153'
p172
S'76.111.39.202'
p173
S'2012-10-08 06:40:44'
p174
F22031.700000000001
tp175
a(S'a0:21:b7:a9:c6:55'
p176
S'4.71.254.140'
p177
S'76.111.39.202'
p178
S'2012-10-08 09:00:40'
p179
F23188.599999999999
tp180
a(S'a0:21:b7:a9:c6:55'
p181
S'4.71.254.140'
p182
S'76.111.39.202'
p183
S'2012-10-08 13:20:43'
p184
F21362.200000000001
tp185
a(S'a0:21:b7:a9:c6:55'
p186
S'4.71.254.140'
p187
S'76.111.39.202'
p188
S'2012-10-08 17:40:42'
p189
F20493.5
tp190
a(S'a0:21:b7:a9:c6:55'
p191
S'4.71.254.140'
p192
S'76.111.39.202'
p193
S'2012-10-08 22:00:56'
p194
F21126.900000000001
tp195
a(S'a0:21:b7:a9:c6:55'
p196
S'4.71.254.140'
p197
S'76.111.39.202'
p198
S'2012-10-09 02:20:49'
p199
F22932.200000000001
tp200
a(S'a0:21:b7:a9:c6:55'
p201
S'4.71.254.140'
p202
S'76.111.39.202'
p203
S'2012-10-09 09:00:42'
p204
F20454.400000000001
tp205
a(S'a0:21:b7:a9:c6:55'
p206
S'4.71.254.153'
p207
S'76.111.39.202'
p208
S'2012-10-09 13:20:42'
p209
F20483.200000000001
tp210
a(S'a0:21:b7:a9:c6:55'
p211
S'4.71.254.140'
p212
S'76.111.39.202'
p213
S'2012-10-09 17:40:45'
p214
F20369.299999999999
tp215
a(S'a0:21:b7:a9:c6:55'
p216
S'4.71.254.140'
p217
S'76.111.39.202'
p218
S'2012-10-09 22:00:57'
p219
F21973.799999999999
tp220
a(S'a0:21:b7:a9:c6:55'
p221
S'4.71.254.153'
p222
S'76.111.39.202'
p223
S'2012-10-10 02:20:45'
p224
F18754.900000000001
tp225
a(S'a0:21:b7:a9:c6:55'
p226
S'4.71.254.140'
p227
S'76.111.39.202'
p228
S'2012-10-10 06:40:44'
p229
F0.0
tp230
a(S'a0:21:b7:a9:c6:55'
p231
S'4.71.254.153'
p232
S'76.111.39.202'
p233
S'2012-10-10 13:20:45'
p234
F19474.799999999999
tp235
a(S'a0:21:b7:a9:c6:55'
p236
S'4.71.254.153'
p237
S'76.111.39.202'
p238
S'2012-10-10 22:01:00'
p239
F19894.700000000001
tp240
a(S'a0:21:b7:a9:c6:55'
p241
S'4.71.254.140'
p242
S'76.111.39.202'
p243
S'2012-10-11 02:20:48'
p244
F19408.400000000001
tp245
a(S'a0:21:b7:a9:c6:55'
p246
S'4.71.254.153'
p247
S'76.111.39.202'
p248
S'2012-10-11 06:40:43'
p249
F20374.799999999999
tp250
a(S'a0:21:b7:a9:c6:55'
p251
S'4.71.254.153'
p252
S'76.111.39.202'
p253
S'2012-10-11 09:00:48'
p254
F20920.299999999999
tp255
a(S'a0:21:b7:a9:c6:55'
p256
S'4.71.254.140'
p257
S'76.111.39.202'
p258
S'2012-10-11 13:20:44'
p259
F20373.799999999999
tp260
a(S'a0:21:b7:a9:c6:55'
p261
S'4.71.254.140'
p262
S'76.111.39.202'
p263
S'2012-10-11 17:40:48'
p264
F20594.799999999999
tp265
a(S'a0:21:b7:a9:c6:55'
p266
S'4.71.254.140'
p267
S'76.111.39.202'
p268
S'2012-10-11 22:00:58'
p269
F20379.5
tp270
a(S'a0:21:b7:a9:c6:55'
p271
S'4.71.254.140'
p272
S'76.111.39.202'
p273
S'2012-10-12 02:20:43'
p274
F19465.599999999999
tp275
a(S'a0:21:b7:a9:c6:55'
p276
S'4.71.254.153'
p277
S'76.111.39.202'
p278
S'2012-10-12 06:40:42'
p279
F20368.400000000001
tp280
a(S'a0:21:b7:a9:c6:55'
p281
S'4.71.254.140'
p282
S'76.111.39.202'
p283
S'2012-10-12 09:00:43'
p284
F20412.799999999999
tp285
a(S'a0:21:b7:a9:c6:55'
p286
S'4.71.254.153'
p287
S'76.111.39.202'
p288
S'2012-10-12 13:20:44'
p289
F19040.5
tp290
a(S'a0:21:b7:a9:c6:55'
p291
S'4.71.254.153'
p292
S'76.111.39.202'
p293
S'2012-10-12 17:40:42'
p294
F20555.299999999999
tp295
a(S'a0:21:b7:a9:c6:55'
p296
S'4.71.254.140'
p297
S'76.111.39.202'
p298
S'2012-10-12 22:01:01'
p299
F19900.700000000001
tp300
a(S'a0:21:b7:a9:c6:55'
p301
S'4.71.254.153'
p302
S'76.111.39.202'
p303
S'2012-10-13 02:20:41'
p304
F20483.5
tp305
a(S'a0:21:b7:a9:c6:55'
p306
S'4.71.254.140'
p307
S'76.111.39.202'
p308
S'2012-10-13 06:40:43'
p309
F20384.299999999999
tp310
a(S'a0:21:b7:a9:c6:55'
p311
S'4.71.254.140'
p312
S'76.111.39.202'
p313
S'2012-10-13 09:00:47'
p314
F20459.599999999999
tp315
a(S'a0:21:b7:a9:c6:55'
p316
S'4.71.254.140'
p317
S'76.111.39.202'
p318
S'2012-10-13 17:40:58'
p319
F18476.5
tp320
a(S'a0:21:b7:a9:c6:55'
p321
S'4.71.254.140'
p322
S'76.111.39.202'
p323
S'2012-10-13 22:00:57'
p324
F20217.099999999999
tp325
a(S'a0:21:b7:a9:c6:55'
p326
S'4.71.254.140'
p327
S'76.111.39.202'
p328
S'2012-10-14 02:20:42'
p329
F20475.400000000001
tp330
a(S'a0:21:b7:a9:c6:55'
p331
S'4.71.254.140'
p332
S'76.111.39.202'
p333
S'2012-10-14 06:40:43'
p334
F20565.099999999999
tp335
a(S'a0:21:b7:a9:c6:55'
p336
S'4.71.254.140'
p337
S'76.111.39.202'
p338
S'2012-10-14 09:00:44'
p339
F20285.400000000001
tp340
a(S'a0:21:b7:a9:c6:55'
p341
S'4.71.254.140'
p342
S'76.111.39.202'
p343
S'2012-10-14 13:20:55'
p344
F20346.400000000001
tp345
a(S'a0:21:b7:a9:c6:55'
p346
S'4.71.254.140'
p347
S'76.111.39.202'
p348
S'2012-10-14 17:40:43'
p349
F19762.299999999999
tp350
a(S'a0:21:b7:a9:c6:55'
p351
S'4.71.254.153'
p352
S'76.111.39.202'
p353
S'2012-10-14 22:01:08'
p354
F20063.0
tp355
a.