(lp0
(S'c4:3d:c7:a3:7c:4c'
p1
S'4.71.254.153'
p2
S'71.56.54.117'
p3
S'2012-10-02 00:40:53'
p4
F11333.0
tp5
a(S'c4:3d:c7:a3:7c:4c'
p6
S'4.71.254.140'
p7
S'71.56.54.117'
p8
S'2012-10-02 05:00:48'
p9
F20498.900000000001
tp10
a(S'c4:3d:c7:a3:7c:4c'
p11
S'4.71.254.140'
p12
S'71.56.54.117'
p13
S'2012-10-02 09:20:55'
p14
F20929.299999999999
tp15
a(S'c4:3d:c7:a3:7c:4c'
p16
S'4.71.254.153'
p17
S'71.56.54.117'
p18
S'2012-10-02 13:40:39'
p19
F0.0
tp20
a(S'c4:3d:c7:a3:7c:4c'
p21
S'4.71.254.153'
p22
S'71.56.54.117'
p23
S'2012-10-02 18:00:38'
p24
F20372.799999999999
tp25
a(S'c4:3d:c7:a3:7c:4c'
p26
S'4.71.254.140'
p27
S'71.56.54.117'
p28
S'2012-10-02 20:20:38'
p29
F20574.200000000001
tp30
a(S'c4:3d:c7:a3:7c:4c'
p31
S'4.71.254.140'
p32
S'71.56.54.117'
p33
S'2012-10-03 00:40:40'
p34
F11828.5
tp35
a(S'c4:3d:c7:a3:7c:4c'
p36
S'4.71.254.153'
p37
S'71.56.54.117'
p38
S'2012-10-03 05:00:41'
p39
F0.0
tp40
a(S'c4:3d:c7:a3:7c:4c'
p41
S'4.71.254.140'
p42
S'71.56.54.117'
p43
S'2012-10-03 09:20:54'
p44
F20587.799999999999
tp45
a(S'c4:3d:c7:a3:7c:4c'
p46
S'4.71.254.153'
p47
S'71.56.54.117'
p48
S'2012-10-03 13:40:37'
p49
F20249.700000000001
tp50
a(S'c4:3d:c7:a3:7c:4c'
p51
S'4.71.254.140'
p52
S'71.56.54.117'
p53
S'2012-10-03 18:00:38'
p54
F20729.599999999999
tp55
a(S'c4:3d:c7:a3:7c:4c'
p56
S'4.71.254.153'
p57
S'71.56.54.117'
p58
S'2012-10-03 20:20:44'
p59
F20710.099999999999
tp60
a(S'c4:3d:c7:a3:7c:4c'
p61
S'4.71.254.140'
p62
S'71.56.54.117'
p63
S'2012-10-04 00:40:36'
p64
F20212.700000000001
tp65
a(S'c4:3d:c7:a3:7c:4c'
p66
S'4.71.254.140'
p67
S'71.56.54.117'
p68
S'2012-10-04 05:00:44'
p69
F20579.099999999999
tp70
a(S'c4:3d:c7:a3:7c:4c'
p71
S'4.71.254.140'
p72
S'71.56.54.117'
p73
S'2012-10-04 09:20:59'
p74
F20376.200000000001
tp75
a(S'c4:3d:c7:a3:7c:4c'
p76
S'4.71.254.140'
p77
S'71.56.54.117'
p78
S'2012-10-04 13:40:43'
p79
F20682.299999999999
tp80
a(S'c4:3d:c7:a3:7c:4c'
p81
S'4.71.254.140'
p82
S'71.56.54.117'
p83
S'2012-10-04 18:00:45'
p84
F20588.200000000001
tp85
a(S'c4:3d:c7:a3:7c:4c'
p86
S'4.71.254.140'
p87
S'71.56.54.117'
p88
S'2012-10-04 20:20:43'
p89
F20755.799999999999
tp90
a(S'c4:3d:c7:a3:7c:4c'
p91
S'4.71.254.140'
p92
S'71.56.54.117'
p93
S'2012-10-05 00:40:45'
p94
F18492.0
tp95
a(S'c4:3d:c7:a3:7c:4c'
p96
S'4.71.254.153'
p97
S'71.56.54.117'
p98
S'2012-10-05 05:00:45'
p99
F20329.900000000001
tp100
a(S'c4:3d:c7:a3:7c:4c'
p101
S'4.71.254.140'
p102
S'71.56.54.117'
p103
S'2012-10-05 09:20:58'
p104
F20242.200000000001
tp105
a(S'c4:3d:c7:a3:7c:4c'
p106
S'4.71.254.153'
p107
S'71.56.54.117'
p108
S'2012-10-05 13:40:45'
p109
F0.0
tp110
a(S'c4:3d:c7:a3:7c:4c'
p111
S'4.71.254.153'
p112
S'71.56.54.117'
p113
S'2012-10-05 18:00:43'
p114
F20633.599999999999
tp115
a(S'c4:3d:c7:a3:7c:4c'
p116
S'4.71.254.140'
p117
S'71.56.54.117'
p118
S'2012-10-05 20:20:42'
p119
F20674.900000000001
tp120
a(S'c4:3d:c7:a3:7c:4c'
p121
S'4.71.254.153'
p122
S'71.56.54.117'
p123
S'2012-10-06 00:40:45'
p124
F21069.0
tp125
a(S'c4:3d:c7:a3:7c:4c'
p126
S'4.71.254.153'
p127
S'71.56.54.117'
p128
S'2012-10-06 05:00:45'
p129
F20277.400000000001
tp130
a(S'c4:3d:c7:a3:7c:4c'
p131
S'4.71.254.153'
p132
S'71.56.54.117'
p133
S'2012-10-06 09:20:59'
p134
F20249.700000000001
tp135
a(S'c4:3d:c7:a3:7c:4c'
p136
S'4.71.254.140'
p137
S'71.56.54.117'
p138
S'2012-10-06 13:40:43'
p139
F20366.299999999999
tp140
a(S'c4:3d:c7:a3:7c:4c'
p141
S'4.71.254.153'
p142
S'71.56.54.117'
p143
S'2012-10-06 18:00:42'
p144
F20053.299999999999
tp145
a(S'c4:3d:c7:a3:7c:4c'
p146
S'4.71.254.153'
p147
S'71.56.54.117'
p148
S'2012-10-06 20:20:45'
p149
F20282.799999999999
tp150
a(S'c4:3d:c7:a3:7c:4c'
p151
S'4.71.254.140'
p152
S'71.56.54.117'
p153
S'2012-10-07 05:39:43'
p154
F20663.700000000001
tp155
a(S'c4:3d:c7:a3:7c:4c'
p156
S'4.71.254.153'
p157
S'71.56.54.117'
p158
S'2012-10-07 10:01:43'
p159
F0.0
tp160
a(S'c4:3d:c7:a3:7c:4c'
p161
S'4.71.254.140'
p162
S'71.56.54.117'
p163
S'2012-10-07 17:39:43'
p164
F20476.799999999999
tp165
a(S'c4:3d:c7:a3:7c:4c'
p166
S'4.71.254.153'
p167
S'71.56.54.117'
p168
S'2012-10-07 22:09:44'
p169
F20736.400000000001
tp170
a(S'c4:3d:c7:a3:7c:4c'
p171
S'4.71.254.140'
p172
S'71.56.54.117'
p173
S'2012-10-08 00:29:44'
p174
F20616.700000000001
tp175
a(S'c4:3d:c7:a3:7c:4c'
p176
S'4.71.254.140'
p177
S'71.56.54.117'
p178
S'2012-10-08 04:51:02'
p179
F20586.200000000001
tp180
a(S'c4:3d:c7:a3:7c:4c'
p181
S'4.71.254.140'
p182
S'71.56.54.117'
p183
S'2012-10-08 09:09:42'
p184
F20268.0
tp185
a(S'c4:3d:c7:a3:7c:4c'
p186
S'4.71.254.140'
p187
S'71.56.54.117'
p188
S'2012-10-08 13:29:58'
p189
F20542.700000000001
tp190
a(S'c4:3d:c7:a3:7c:4c'
p191
S'4.71.254.153'
p192
S'71.56.54.117'
p193
S'2012-10-08 17:49:46'
p194
F0.0
tp195
a(S'c4:3d:c7:a3:7c:4c'
p196
S'4.71.254.140'
p197
S'71.56.54.117'
p198
S'2012-10-08 22:09:43'
p199
F20380.900000000001
tp200
a(S'c4:3d:c7:a3:7c:4c'
p201
S'4.71.254.153'
p202
S'71.56.54.117'
p203
S'2012-10-09 00:29:48'
p204
F20699.099999999999
tp205
a(S'c4:3d:c7:a3:7c:4c'
p206
S'4.71.254.140'
p207
S'71.56.54.117'
p208
S'2012-10-09 04:49:42'
p209
F20747.5
tp210
a(S'c4:3d:c7:a3:7c:4c'
p211
S'4.71.254.140'
p212
S'71.56.54.117'
p213
S'2012-10-09 09:09:43'
p214
F20096.200000000001
tp215
a(S'c4:3d:c7:a3:7c:4c'
p216
S'4.71.254.140'
p217
S'71.56.54.117'
p218
S'2012-10-09 13:30:00'
p219
F20038.200000000001
tp220
a(S'c4:3d:c7:a3:7c:4c'
p221
S'4.71.254.153'
p222
S'71.56.54.117'
p223
S'2012-10-09 17:49:45'
p224
F20297.5
tp225
a(S'c4:3d:c7:a3:7c:4c'
p226
S'4.71.254.153'
p227
S'71.56.54.117'
p228
S'2012-10-09 22:09:46'
p229
F20501.400000000001
tp230
a(S'c4:3d:c7:a3:7c:4c'
p231
S'4.71.254.140'
p232
S'71.56.54.117'
p233
S'2012-10-10 00:29:50'
p234
F21047.200000000001
tp235
a(S'c4:3d:c7:a3:7c:4c'
p236
S'4.71.254.140'
p237
S'71.56.54.117'
p238
S'2012-10-10 04:49:54'
p239
F20327.299999999999
tp240
a(S'c4:3d:c7:a3:7c:4c'
p241
S'4.71.254.140'
p242
S'71.56.54.117'
p243
S'2012-10-10 19:51:47'
p244
F19950.099999999999
tp245
a(S'c4:3d:c7:a3:7c:4c'
p246
S'4.71.254.153'
p247
S'71.56.54.117'
p248
S'2012-10-11 00:12:15'
p249
F0.0
tp250
a(S'c4:3d:c7:a3:7c:4c'
p251
S'4.71.254.153'
p252
S'71.56.54.117'
p253
S'2012-10-11 04:31:43'
p254
F20340.700000000001
tp255
a(S'c4:3d:c7:a3:7c:4c'
p256
S'4.71.254.153'
p257
S'71.56.54.117'
p258
S'2012-10-11 08:51:44'
p259
F19982.200000000001
tp260
a(S'c4:3d:c7:a3:7c:4c'
p261
S'4.71.254.153'
p262
S'71.56.54.117'
p263
S'2012-10-11 11:11:45'
p264
F20065.599999999999
tp265
a(S'c4:3d:c7:a3:7c:4c'
p266
S'4.71.254.153'
p267
S'71.56.54.117'
p268
S'2012-10-11 15:31:43'
p269
F20204.299999999999
tp270
a(S'c4:3d:c7:a3:7c:4c'
p271
S'4.71.254.153'
p272
S'71.56.54.117'
p273
S'2012-10-11 19:51:42'
p274
F20285.799999999999
tp275
a(S'c4:3d:c7:a3:7c:4c'
p276
S'4.71.254.153'
p277
S'71.56.54.117'
p278
S'2012-10-12 00:11:56'
p279
F20929.099999999999
tp280
a(S'c4:3d:c7:a3:7c:4c'
p281
S'4.71.254.140'
p282
S'71.56.54.117'
p283
S'2012-10-12 04:10:42'
p284
F20593.200000000001
tp285
a(S'c4:3d:c7:a3:7c:4c'
p286
S'4.71.254.153'
p287
S'71.56.54.117'
p288
S'2012-10-12 08:00:46'
p289
F20084.299999999999
tp290
a(S'c4:3d:c7:a3:7c:4c'
p291
S'4.71.254.153'
p292
S'71.56.54.117'
p293
S'2012-10-12 10:20:43'
p294
F20719.799999999999
tp295
a(S'c4:3d:c7:a3:7c:4c'
p296
S'4.71.254.140'
p297
S'71.56.54.117'
p298
S'2012-10-12 14:40:43'
p299
F20363.299999999999
tp300
a(S'c4:3d:c7:a3:7c:4c'
p301
S'4.71.254.140'
p302
S'71.56.54.117'
p303
S'2012-10-12 23:21:22'
p304
F20332.099999999999
tp305
a(S'c4:3d:c7:a3:7c:4c'
p306
S'4.71.254.140'
p307
S'71.56.54.117'
p308
S'2012-10-13 03:40:44'
p309
F20574.900000000001
tp310
a(S'c4:3d:c7:a3:7c:4c'
p311
S'4.71.254.153'
p312
S'71.56.54.117'
p313
S'2012-10-13 08:00:45'
p314
F20152.599999999999
tp315
a(S'c4:3d:c7:a3:7c:4c'
p316
S'4.71.254.153'
p317
S'71.56.54.117'
p318
S'2012-10-13 10:20:43'
p319
F20277.0
tp320
a(S'c4:3d:c7:a3:7c:4c'
p321
S'4.71.254.140'
p322
S'71.56.54.117'
p323
S'2012-10-13 14:40:45'
p324
F20094.0
tp325
a(S'c4:3d:c7:a3:7c:4c'
p326
S'4.71.254.140'
p327
S'71.56.54.117'
p328
S'2012-10-13 19:00:43'
p329
F20703.200000000001
tp330
a(S'c4:3d:c7:a3:7c:4c'
p331
S'4.71.254.153'
p332
S'71.56.54.117'
p333
S'2012-10-13 23:21:08'
p334
F22636.799999999999
tp335
a(S'c4:3d:c7:a3:7c:4c'
p336
S'4.71.254.153'
p337
S'71.56.54.117'
p338
S'2012-10-14 03:40:44'
p339
F20687.900000000001
tp340
a(S'c4:3d:c7:a3:7c:4c'
p341
S'4.71.254.153'
p342
S'71.56.54.117'
p343
S'2012-10-14 08:00:50'
p344
F0.0
tp345
a(S'c4:3d:c7:a3:7c:4c'
p346
S'4.71.254.153'
p347
S'71.56.54.117'
p348
S'2012-10-14 10:20:45'
p349
F20365.400000000001
tp350
a(S'c4:3d:c7:a3:7c:4c'
p351
S'4.71.254.153'
p352
S'71.56.54.117'
p353
S'2012-10-14 14:40:45'
p354
F20087.0
tp355
a(S'c4:3d:c7:a3:7c:4c'
p356
S'4.71.254.140'
p357
S'71.56.54.117'
p358
S'2012-10-14 19:00:42'
p359
F20633.700000000001
tp360
a(S'c4:3d:c7:a3:7c:4c'
p361
S'4.71.254.140'
p362
S'71.56.54.117'
p363
S'2012-10-14 23:20:57'
p364
F20615.400000000001
tp365
a.