(lp0
(S'c4:3d:c7:a3:ed:ec'
p1
S'38.98.51.38'
p2
S'76.88.123.65'
p3
S'2012-10-02 03:18:00'
p4
F53088.599999999999
tp5
a(S'c4:3d:c7:a3:ed:ec'
p6
S'38.98.51.38'
p7
S'76.88.123.65'
p8
S'2012-10-02 07:37:54'
p9
F83488.699999999997
tp10
a(S'c4:3d:c7:a3:ed:ec'
p11
S'38.98.51.38'
p12
S'76.88.123.65'
p13
S'2012-10-02 11:58:14'
p14
F95717.199999999997
tp15
a(S'c4:3d:c7:a3:ed:ec'
p16
S'38.98.51.38'
p17
S'76.88.123.65'
p18
S'2012-10-02 14:18:43'
p19
F83004.899999999994
tp20
a(S'c4:3d:c7:a3:ed:ec'
p21
S'38.98.51.38'
p22
S'76.88.123.65'
p23
S'2012-10-02 22:12:42'
p24
F101703.0
tp25
a(S'c4:3d:c7:a3:ed:ec'
p26
S'38.98.51.38'
p27
S'76.88.123.65'
p28
S'2012-10-03 02:32:15'
p29
F53267.0
tp30
a(S'c4:3d:c7:a3:ed:ec'
p31
S'38.98.51.38'
p32
S'76.88.123.65'
p33
S'2012-10-03 11:13:17'
p34
F84843.300000000003
tp35
a(S'c4:3d:c7:a3:ed:ec'
p36
S'38.98.51.38'
p37
S'76.88.123.65'
p38
S'2012-10-03 15:21:34'
p39
F117498.0
tp40
a(S'c4:3d:c7:a3:ed:ec'
p41
S'38.98.51.38'
p42
S'76.88.123.65'
p43
S'2012-10-03 19:41:13'
p44
F87397.699999999997
tp45
a(S'c4:3d:c7:a3:ed:ec'
p46
S'38.98.51.38'
p47
S'76.88.123.65'
p48
S'2012-10-03 22:01:18'
p49
F100327.0
tp50
a(S'c4:3d:c7:a3:ed:ec'
p51
S'38.98.51.38'
p52
S'76.88.123.65'
p53
S'2012-10-04 02:21:43'
p54
F101855.0
tp55
a(S'c4:3d:c7:a3:ed:ec'
p56
S'38.98.51.38'
p57
S'76.88.123.65'
p58
S'2012-10-04 07:41:35'
p59
F119100.0
tp60
a(S'c4:3d:c7:a3:ed:ec'
p61
S'38.98.51.38'
p62
S'76.88.123.65'
p63
S'2012-10-04 12:01:30'
p64
F52917.400000000001
tp65
a(S'c4:3d:c7:a3:ed:ec'
p66
S'38.98.51.38'
p67
S'76.88.123.65'
p68
S'2012-10-04 16:21:32'
p69
F115391.0
tp70
a(S'c4:3d:c7:a3:ed:ec'
p71
S'38.98.51.38'
p72
S'76.88.123.65'
p73
S'2012-10-04 20:41:47'
p74
F53406.5
tp75
a(S'c4:3d:c7:a3:ed:ec'
p76
S'38.98.51.38'
p77
S'76.88.123.65'
p78
S'2012-10-04 23:01:32'
p79
F87774.5
tp80
a(S'c4:3d:c7:a3:ed:ec'
p81
S'38.98.51.38'
p82
S'76.88.123.65'
p83
S'2012-10-05 03:21:23'
p84
F51073.800000000003
tp85
a(S'c4:3d:c7:a3:ed:ec'
p86
S'38.98.51.38'
p87
S'76.88.123.65'
p88
S'2012-10-05 07:41:12'
p89
F51115.099999999999
tp90
a(S'c4:3d:c7:a3:ed:ec'
p91
S'38.98.51.38'
p92
S'76.88.123.65'
p93
S'2012-10-05 12:01:19'
p94
F109612.0
tp95
a(S'c4:3d:c7:a3:ed:ec'
p96
S'38.98.51.38'
p97
S'76.88.123.65'
p98
S'2012-10-05 20:41:42'
p99
F0.0
tp100
a(S'c4:3d:c7:a3:ed:ec'
p101
S'38.98.51.38'
p102
S'76.88.123.65'
p103
S'2012-10-06 01:11:46'
p104
F53256.300000000003
tp105
a(S'c4:3d:c7:a3:ed:ec'
p106
S'38.98.51.38'
p107
S'76.88.123.65'
p108
S'2012-10-06 05:19:46'
p109
F52983.199999999997
tp110
a(S'c4:3d:c7:a3:ed:ec'
p111
S'38.98.51.38'
p112
S'76.88.123.65'
p113
S'2012-10-06 09:40:32'
p114
F84667.5
tp115
a(S'c4:3d:c7:a3:ed:ec'
p116
S'38.98.51.38'
p117
S'76.88.123.65'
p118
S'2012-10-06 14:00:12'
p119
F53171.199999999997
tp120
a(S'c4:3d:c7:a3:ed:ec'
p121
S'38.98.51.38'
p122
S'76.88.123.65'
p123
S'2012-10-06 22:39:49'
p124
F52596.900000000001
tp125
a(S'c4:3d:c7:a3:ed:ec'
p126
S'38.98.51.38'
p127
S'76.88.123.65'
p128
S'2012-10-07 02:59:56'
p129
F83103.399999999994
tp130
a(S'c4:3d:c7:a3:ed:ec'
p131
S'38.98.51.38'
p132
S'76.88.123.65'
p133
S'2012-10-07 06:55:45'
p134
F52463.199999999997
tp135
a(S'c4:3d:c7:a3:ed:ec'
p136
S'38.98.51.38'
p137
S'76.88.123.65'
p138
S'2012-10-07 11:15:44'
p139
F52749.199999999997
tp140
a(S'c4:3d:c7:a3:ed:ec'
p141
S'38.98.51.38'
p142
S'76.88.123.65'
p143
S'2012-10-07 15:35:52'
p144
F50645.400000000001
tp145
a(S'c4:3d:c7:a3:ed:ec'
p146
S'38.98.51.38'
p147
S'76.88.123.65'
p148
S'2012-10-07 19:56:10'
p149
F80047.800000000003
tp150
a(S'c4:3d:c7:a3:ed:ec'
p151
S'38.98.51.38'
p152
S'76.88.123.65'
p153
S'2012-10-08 00:15:54'
p154
F81160.800000000003
tp155
a(S'c4:3d:c7:a3:ed:ec'
p156
S'38.98.51.38'
p157
S'76.88.123.65'
p158
S'2012-10-08 06:56:19'
p159
F108349.0
tp160
a(S'c4:3d:c7:a3:ed:ec'
p161
S'38.98.51.38'
p162
S'76.88.123.65'
p163
S'2012-10-08 11:16:14'
p164
F115326.0
tp165
a(S'c4:3d:c7:a3:ed:ec'
p166
S'38.98.51.38'
p167
S'76.88.123.65'
p168
S'2012-10-08 15:36:04'
p169
F106572.0
tp170
a(S'c4:3d:c7:a3:ed:ec'
p171
S'38.98.51.38'
p172
S'76.88.123.65'
p173
S'2012-10-08 19:56:09'
p174
F82873.0
tp175
a(S'c4:3d:c7:a3:ed:ec'
p176
S'38.98.51.38'
p177
S'76.88.123.65'
p178
S'2012-10-09 00:16:18'
p179
F101843.0
tp180
a(S'c4:3d:c7:a3:ed:ec'
p181
S'38.98.51.38'
p182
S'76.88.123.65'
p183
S'2012-10-09 04:36:42'
p184
F132606.0
tp185
a(S'c4:3d:c7:a3:ed:ec'
p186
S'38.98.51.38'
p187
S'76.88.123.65'
p188
S'2012-10-09 06:56:13'
p189
F51104.400000000001
tp190
a(S'c4:3d:c7:a3:ed:ec'
p191
S'38.98.51.38'
p192
S'76.88.123.65'
p193
S'2012-10-09 11:16:03'
p194
F115884.0
tp195
a(S'c4:3d:c7:a3:ed:ec'
p196
S'38.98.51.38'
p197
S'76.88.123.65'
p198
S'2012-10-09 15:36:14'
p199
F101022.0
tp200
a(S'c4:3d:c7:a3:ed:ec'
p201
S'38.98.51.38'
p202
S'76.88.123.65'
p203
S'2012-10-09 19:56:31'
p204
F101742.0
tp205
a(S'c4:3d:c7:a3:ed:ec'
p206
S'38.98.51.38'
p207
S'76.88.123.65'
p208
S'2012-10-10 00:16:22'
p209
F132890.0
tp210
a(S'c4:3d:c7:a3:ed:ec'
p211
S'38.98.51.38'
p212
S'76.88.123.65'
p213
S'2012-10-10 04:36:14'
p214
F101644.0
tp215
a(S'c4:3d:c7:a3:ed:ec'
p216
S'38.98.51.38'
p217
S'76.88.123.65'
p218
S'2012-10-10 06:56:15'
p219
F113943.0
tp220
a(S'c4:3d:c7:a3:ed:ec'
p221
S'38.98.51.38'
p222
S'76.88.123.65'
p223
S'2012-10-10 23:52:15'
p224
F52641.699999999997
tp225
a(S'c4:3d:c7:a3:ed:ec'
p226
S'38.98.51.38'
p227
S'76.88.123.65'
p228
S'2012-10-11 02:38:44'
p229
F51042.199999999997
tp230
a(S'c4:3d:c7:a3:ed:ec'
p231
S'38.98.51.38'
p232
S'76.88.123.65'
p233
S'2012-10-11 11:18:55'
p234
F85748.600000000006
tp235
a(S'c4:3d:c7:a3:ed:ec'
p236
S'38.98.51.38'
p237
S'76.88.123.65'
p238
S'2012-10-11 15:39:35'
p239
F108520.0
tp240
a(S'c4:3d:c7:a3:ed:ec'
p241
S'38.98.51.38'
p242
S'76.88.123.65'
p243
S'2012-10-11 23:11:46'
p244
F52039.099999999999
tp245
a(S'c4:3d:c7:a3:ed:ec'
p246
S'38.98.51.38'
p247
S'76.88.123.65'
p248
S'2012-10-12 03:31:44'
p249
F51091.0
tp250
a(S'c4:3d:c7:a3:ed:ec'
p251
S'38.98.51.38'
p252
S'76.88.123.65'
p253
S'2012-10-12 07:52:15'
p254
F82154.5
tp255
a(S'c4:3d:c7:a3:ed:ec'
p256
S'38.98.51.38'
p257
S'76.88.123.65'
p258
S'2012-10-12 12:12:29'
p259
F53288.699999999997
tp260
a(S'c4:3d:c7:a3:ed:ec'
p261
S'38.98.51.38'
p262
S'76.88.123.65'
p263
S'2012-10-12 16:32:04'
p264
F80658.899999999994
tp265
a(S'c4:3d:c7:a3:ed:ec'
p266
S'38.98.51.38'
p267
S'76.88.123.65'
p268
S'2012-10-12 20:52:02'
p269
F105277.0
tp270
a(S'c4:3d:c7:a3:ed:ec'
p271
S'38.98.51.38'
p272
S'76.88.123.65'
p273
S'2012-10-12 23:13:22'
p274
F101820.0
tp275
a(S'c4:3d:c7:a3:ed:ec'
p276
S'38.98.51.38'
p277
S'76.88.123.65'
p278
S'2012-10-13 05:29:45'
p279
F56236.900000000001
tp280
a(S'c4:3d:c7:a3:ed:ec'
p281
S'38.98.51.38'
p282
S'76.88.123.65'
p283
S'2012-10-13 09:50:04'
p284
F109301.0
tp285
a(S'c4:3d:c7:a3:ed:ec'
p286
S'38.98.51.38'
p287
S'76.88.123.65'
p288
S'2012-10-13 14:10:03'
p289
F117441.0
tp290
a(S'c4:3d:c7:a3:ed:ec'
p291
S'38.98.51.38'
p292
S'76.88.123.65'
p293
S'2012-10-13 18:30:02'
p294
F52115.699999999997
tp295
a(S'c4:3d:c7:a3:ed:ec'
p296
S'38.98.51.38'
p297
S'76.88.123.65'
p298
S'2012-10-13 22:52:08'
p299
F109203.0
tp300
a(S'c4:3d:c7:a3:ed:ec'
p301
S'38.98.51.38'
p302
S'76.88.123.65'
p303
S'2012-10-14 03:10:16'
p304
F87601.0
tp305
a(S'c4:3d:c7:a3:ed:ec'
p306
S'38.98.51.38'
p307
S'76.88.123.65'
p308
S'2012-10-14 05:30:42'
p309
F130498.0
tp310
a(S'c4:3d:c7:a3:ed:ec'
p311
S'38.98.51.38'
p312
S'76.88.123.65'
p313
S'2012-10-14 09:50:22'
p314
F51025.5
tp315
a(S'c4:3d:c7:a3:ed:ec'
p316
S'38.98.51.38'
p317
S'76.88.123.65'
p318
S'2012-10-14 14:10:24'
p319
F53346.300000000003
tp320
a(S'c4:3d:c7:a3:ed:ec'
p321
S'38.98.51.38'
p322
S'76.88.123.65'
p323
S'2012-10-14 18:30:11'
p324
F51053.400000000001
tp325
a(S'c4:3d:c7:a3:ed:ec'
p326
S'38.98.51.38'
p327
S'76.88.123.65'
p328
S'2012-10-14 22:52:19'
p329
F53423.800000000003
tp330
a.