(lp0
(S'c4:3d:c7:a3:76:d3'
p1
S'72.145.176.136'
p2
S'4.71.254.153'
p3
S'2012-10-02 03:36:58'
p4
F334.05000000000001
tp5
a(S'c4:3d:c7:a3:76:d3'
p6
S'72.145.176.136'
p7
S'4.71.254.140'
p8
S'2012-10-02 07:56:49'
p9
F347.77999999999997
tp10
a(S'c4:3d:c7:a3:76:d3'
p11
S'72.145.176.136'
p12
S'4.71.254.153'
p13
S'2012-10-02 12:16:53'
p14
F327.88
tp15
a(S'c4:3d:c7:a3:76:d3'
p16
S'72.145.176.136'
p17
S'4.71.254.140'
p18
S'2012-10-02 16:36:46'
p19
F327.45999999999998
tp20
a(S'c4:3d:c7:a3:76:d3'
p21
S'72.145.176.136'
p22
S'4.71.254.140'
p23
S'2012-10-02 18:56:59'
p24
F332.81
tp25
a(S'c4:3d:c7:a3:76:d3'
p26
S'72.145.176.136'
p27
S'4.71.254.153'
p28
S'2012-10-02 23:16:48'
p29
F343.20999999999998
tp30
a(S'c4:3d:c7:a3:76:d3'
p31
S'72.145.176.136'
p32
S'4.71.254.140'
p33
S'2012-10-03 04:36:49'
p34
F333.79000000000002
tp35
a(S'c4:3d:c7:a3:76:d3'
p36
S'72.145.180.63'
p37
S'4.71.254.140'
p38
S'2012-10-03 13:16:46'
p39
F329.82999999999998
tp40
a(S'c4:3d:c7:a3:76:d3'
p41
S'72.145.180.63'
p42
S'4.71.254.140'
p43
S'2012-10-03 17:06:53'
p44
F341.80000000000001
tp45
a(S'c4:3d:c7:a3:76:d3'
p46
S'72.145.180.63'
p47
S'4.71.254.140'
p48
S'2012-10-03 19:06:00'
p49
F342.00999999999999
tp50
a(S'c4:3d:c7:a3:76:d3'
p51
S'72.145.180.63'
p52
S'4.71.254.153'
p53
S'2012-10-03 23:25:47'
p54
F325.06999999999999
tp55
a(S'c4:3d:c7:a3:76:d3'
p56
S'72.145.180.63'
p57
S'4.71.254.140'
p58
S'2012-10-04 03:45:48'
p59
F335.63999999999999
tp60
a(S'c4:3d:c7:a3:76:d3'
p61
S'72.145.180.63'
p62
S'4.71.254.140'
p63
S'2012-10-04 08:05:50'
p64
F333.63999999999999
tp65
a(S'c4:3d:c7:a3:76:d3'
p66
S'72.145.180.63'
p67
S'4.71.254.140'
p68
S'2012-10-04 12:25:50'
p69
F327.0
tp70
a(S'c4:3d:c7:a3:76:d3'
p71
S'72.145.180.63'
p72
S'4.71.254.140'
p73
S'2012-10-04 19:06:04'
p74
F340.38
tp75
a(S'c4:3d:c7:a3:76:d3'
p76
S'72.145.180.63'
p77
S'4.71.254.153'
p78
S'2012-10-04 23:25:51'
p79
F341.38
tp80
a(S'c4:3d:c7:a3:76:d3'
p81
S'72.145.180.63'
p82
S'4.71.254.140'
p83
S'2012-10-05 04:45:53'
p84
F333.49000000000001
tp85
a(S'c4:3d:c7:a3:76:d3'
p86
S'72.145.180.63'
p87
S'4.71.254.140'
p88
S'2012-10-05 09:05:57'
p89
F332.56999999999999
tp90
a(S'c4:3d:c7:a3:76:d3'
p91
S'72.145.180.63'
p92
S'4.71.254.153'
p93
S'2012-10-05 14:15:50'
p94
F335.00999999999999
tp95
a(S'c4:3d:c7:a3:76:d3'
p96
S'72.145.180.63'
p97
S'4.71.254.140'
p98
S'2012-10-05 18:35:52'
p99
F330.75999999999999
tp100
a(S'c4:3d:c7:a3:76:d3'
p101
S'72.145.180.63'
p102
S'4.71.254.153'
p103
S'2012-10-05 20:56:09'
p104
F332.13999999999999
tp105
a(S'c4:3d:c7:a3:76:d3'
p106
S'72.145.180.63'
p107
S'4.71.254.153'
p108
S'2012-10-06 01:25:49'
p109
F337.27999999999997
tp110
a(S'c4:3d:c7:a3:76:d3'
p111
S'72.145.180.63'
p112
S'4.71.254.140'
p113
S'2012-10-06 05:45:53'
p114
F334.5
tp115
a(S'c4:3d:c7:a3:76:d3'
p116
S'72.145.180.63'
p117
S'4.71.254.140'
p118
S'2012-10-06 10:05:50'
p119
F334.69
tp120
a(S'c4:3d:c7:a3:76:d3'
p121
S'72.145.180.63'
p122
S'4.71.254.153'
p123
S'2012-10-06 14:25:51'
p124
F344.0
tp125
a(S'c4:3d:c7:a3:76:d3'
p126
S'72.145.180.63'
p127
S'4.71.254.153'
p128
S'2012-10-06 18:45:51'
p129
F340.41000000000003
tp130
a(S'c4:3d:c7:a3:76:d3'
p131
S'72.145.180.63'
p132
S'4.71.254.140'
p133
S'2012-10-06 21:06:11'
p134
F342.38999999999999
tp135
a(S'c4:3d:c7:a3:76:d3'
p136
S'72.145.180.63'
p137
S'4.71.254.153'
p138
S'2012-10-07 01:25:59'
p139
F343.39999999999998
tp140
a(S'c4:3d:c7:a3:76:d3'
p141
S'72.145.180.63'
p142
S'4.71.254.140'
p143
S'2012-10-07 06:55:52'
p144
F341.64999999999998
tp145
a(S'c4:3d:c7:a3:76:d3'
p146
S'72.145.180.63'
p147
S'4.71.254.140'
p148
S'2012-10-07 14:15:50'
p149
F343.26999999999998
tp150
a(S'c4:3d:c7:a3:76:d3'
p151
S'72.145.180.63'
p152
S'4.71.254.140'
p153
S'2012-10-07 21:15:51'
p154
F331.32999999999998
tp155
a(S'c4:3d:c7:a3:76:d3'
p156
S'72.145.180.63'
p157
S'4.71.254.153'
p158
S'2012-10-08 04:15:52'
p159
F329.67000000000002
tp160
a(S'c4:3d:c7:a3:76:d3'
p161
S'72.145.180.63'
p162
S'4.71.254.140'
p163
S'2012-10-08 06:36:06'
p164
F347.77999999999997
tp165
a(S'c4:3d:c7:a3:76:d3'
p166
S'72.145.180.63'
p167
S'4.71.254.140'
p168
S'2012-10-08 10:55:51'
p169
F333.81
tp170
a(S'c4:3d:c7:a3:76:d3'
p171
S'72.145.180.63'
p172
S'4.71.254.153'
p173
S'2012-10-08 15:15:58'
p174
F338.89999999999998
tp175
a(S'c4:3d:c7:a3:76:d3'
p176
S'72.145.180.63'
p177
S'4.71.254.140'
p178
S'2012-10-08 19:35:50'
p179
F342.57999999999998
tp180
a(S'c4:3d:c7:a3:76:d3'
p181
S'72.145.180.63'
p182
S'4.71.254.140'
p183
S'2012-10-09 00:55:59'
p184
F343.93000000000001
tp185
a(S'c4:3d:c7:a3:76:d3'
p186
S'72.145.180.63'
p187
S'4.71.254.140'
p188
S'2012-10-09 05:15:50'
p189
F341.85000000000002
tp190
a(S'c4:3d:c7:a3:76:d3'
p191
S'72.145.180.63'
p192
S'4.71.254.140'
p193
S'2012-10-09 07:36:04'
p194
F335.04000000000002
tp195
a(S'c4:3d:c7:a3:76:d3'
p196
S'72.145.180.63'
p197
S'4.71.254.153'
p198
S'2012-10-09 11:55:59'
p199
F343.38999999999999
tp200
a(S'c4:3d:c7:a3:76:d3'
p201
S'72.145.180.63'
p202
S'4.71.254.140'
p203
S'2012-10-09 16:15:52'
p204
F333.87
tp205
a(S'c4:3d:c7:a3:76:d3'
p206
S'72.145.180.63'
p207
S'4.71.254.140'
p208
S'2012-10-09 20:35:48'
p209
F340.16000000000003
tp210
a(S'c4:3d:c7:a3:76:d3'
p211
S'72.145.180.63'
p212
S'4.71.254.140'
p213
S'2012-10-10 00:55:58'
p214
F340.85000000000002
tp215
a(S'c4:3d:c7:a3:76:d3'
p216
S'72.145.180.63'
p217
S'4.71.254.140'
p218
S'2012-10-10 05:15:52'
p219
F333.41000000000003
tp220
a(S'c4:3d:c7:a3:76:d3'
p221
S'72.145.180.63'
p222
S'4.71.254.140'
p223
S'2012-10-10 07:36:04'
p224
F334.07999999999998
tp225
a(S'c4:3d:c7:a3:76:d3'
p226
S'72.145.180.63'
p227
S'4.71.254.140'
p228
S'2012-10-10 23:51:51'
p229
F333.69999999999999
tp230
a(S'c4:3d:c7:a3:76:d3'
p231
S'72.145.180.63'
p232
S'4.71.254.153'
p233
S'2012-10-11 04:11:49'
p234
F341.26999999999998
tp235
a(S'c4:3d:c7:a3:76:d3'
p236
S'72.145.180.63'
p237
S'4.71.254.140'
p238
S'2012-10-11 08:31:57'
p239
F333.18000000000001
tp240
a(S'c4:3d:c7:a3:76:d3'
p241
S'72.145.180.63'
p242
S'4.71.254.153'
p243
S'2012-10-11 12:51:53'
p244
F341.81999999999999
tp245
a(S'c4:3d:c7:a3:76:d3'
p246
S'72.145.180.63'
p247
S'4.71.254.140'
p248
S'2012-10-11 15:12:03'
p249
F333.67000000000002
tp250
a(S'c4:3d:c7:a3:76:d3'
p251
S'72.145.180.63'
p252
S'4.71.254.140'
p253
S'2012-10-11 19:31:53'
p254
F344.25
tp255
a(S'c4:3d:c7:a3:76:d3'
p256
S'72.145.180.63'
p257
S'4.71.254.153'
p258
S'2012-10-12 00:51:53'
p259
F340.92000000000002
tp260
a(S'c4:3d:c7:a3:76:d3'
p261
S'72.145.180.63'
p262
S'4.71.254.153'
p263
S'2012-10-12 05:11:49'
p264
F333.45999999999998
tp265
a(S'c4:3d:c7:a3:76:d3'
p266
S'72.145.180.63'
p267
S'4.71.254.153'
p268
S'2012-10-12 09:31:58'
p269
F332.38999999999999
tp270
a(S'c4:3d:c7:a3:76:d3'
p271
S'72.145.180.63'
p272
S'4.71.254.153'
p273
S'2012-10-12 13:51:52'
p274
F327.86000000000001
tp275
a(S'c4:3d:c7:a3:76:d3'
p276
S'72.145.180.63'
p277
S'4.71.254.153'
p278
S'2012-10-12 16:12:04'
p279
F338.75
tp280
a(S'c4:3d:c7:a3:76:d3'
p281
S'72.145.180.63'
p282
S'4.71.254.140'
p283
S'2012-10-12 20:31:52'
p284
F333.0
tp285
a(S'c4:3d:c7:a3:76:d3'
p286
S'72.145.180.63'
p287
S'4.71.254.153'
p288
S'2012-10-13 00:51:52'
p289
F333.54000000000002
tp290
a(S'c4:3d:c7:a3:76:d3'
p291
S'72.145.180.63'
p292
S'4.71.254.140'
p293
S'2012-10-13 05:11:47'
p294
F334.77999999999997
tp295
a(S'c4:3d:c7:a3:76:d3'
p296
S'72.145.180.63'
p297
S'4.71.254.140'
p298
S'2012-10-13 09:31:52'
p299
F333.10000000000002
tp300
a(S'c4:3d:c7:a3:76:d3'
p301
S'72.145.180.63'
p302
S'4.71.254.140'
p303
S'2012-10-13 13:51:49'
p304
F330.20999999999998
tp305
a(S'c4:3d:c7:a3:76:d3'
p306
S'72.145.180.63'
p307
S'4.71.254.140'
p308
S'2012-10-13 16:12:04'
p309
F327.72000000000003
tp310
a(S'c4:3d:c7:a3:76:d3'
p311
S'72.145.180.63'
p312
S'4.71.254.153'
p313
S'2012-10-13 20:31:50'
p314
F329.69999999999999
tp315
a(S'c4:3d:c7:a3:76:d3'
p316
S'72.145.180.63'
p317
S'4.71.254.153'
p318
S'2012-10-14 00:51:58'
p319
F295.33999999999997
tp320
a(S'c4:3d:c7:a3:76:d3'
p321
S'72.145.180.63'
p322
S'4.71.254.140'
p323
S'2012-10-14 05:12:01'
p324
F312.45999999999998
tp325
a(S'c4:3d:c7:a3:76:d3'
p326
S'72.145.180.63'
p327
S'4.71.254.140'
p328
S'2012-10-14 13:51:52'
p329
F333.82999999999998
tp330
a(S'c4:3d:c7:a3:76:d3'
p331
S'72.145.180.63'
p332
S'4.71.254.140'
p333
S'2012-10-14 16:12:08'
p334
F306.67000000000002
tp335
a(S'c4:3d:c7:a3:76:d3'
p336
S'72.145.180.63'
p337
S'4.71.254.140'
p338
S'2012-10-14 20:31:52'
p339
F332.88
tp340
a.