(lp0
(S'c4:3d:c7:b0:ae:78'
p1
S'4.71.254.140'
p2
S'207.138.47.153'
p3
S'2012-10-02 01:37:07'
p4
F3309.4899999999998
tp5
a(S'c4:3d:c7:b0:ae:78'
p6
S'4.71.254.140'
p7
S'207.138.47.153'
p8
S'2012-10-02 05:54:46'
p9
F27089.200000000001
tp10
a(S'c4:3d:c7:b0:ae:78'
p11
S'4.71.254.140'
p12
S'207.138.47.153'
p13
S'2012-10-02 10:14:01'
p14
F24997.400000000001
tp15
a(S'c4:3d:c7:b0:ae:78'
p16
S'4.71.254.140'
p17
S'207.138.47.153'
p18
S'2012-10-02 12:34:32'
p19
F25398.5
tp20
a(S'c4:3d:c7:b0:ae:78'
p21
S'4.71.254.153'
p22
S'207.138.47.153'
p23
S'2012-10-02 16:44:24'
p24
F23753.400000000001
tp25
a(S'c4:3d:c7:b0:ae:78'
p26
S'4.71.254.140'
p27
S'207.138.47.153'
p28
S'2012-10-02 21:13:47'
p29
F26925.0
tp30
a(S'c4:3d:c7:b0:ae:78'
p31
S'4.71.254.153'
p32
S'207.138.47.153'
p33
S'2012-10-03 02:05:31'
p34
F761.41999999999996
tp35
a(S'c4:3d:c7:b0:ae:78'
p36
S'4.71.254.140'
p37
S'207.138.47.153'
p38
S'2012-10-03 11:14:07'
p39
F28567.0
tp40
a(S'c4:3d:c7:b0:ae:78'
p41
S'4.71.254.153'
p42
S'207.138.47.153'
p43
S'2012-10-03 13:44:05'
p44
F27410.200000000001
tp45
a(S'c4:3d:c7:b0:ae:78'
p46
S'4.71.254.153'
p47
S'207.138.47.153'
p48
S'2012-10-03 18:34:26'
p49
F25821.200000000001
tp50
a(S'c4:3d:c7:b0:ae:78'
p51
S'4.71.254.153'
p52
S'207.138.47.153'
p53
S'2012-10-03 23:04:32'
p54
F7253.6999999999998
tp55
a(S'c4:3d:c7:b0:ae:78'
p56
S'4.71.254.140'
p57
S'207.138.47.153'
p58
S'2012-10-04 03:34:57'
p59
F9689.2199999999993
tp60
a(S'c4:3d:c7:b0:ae:78'
p61
S'4.71.254.153'
p62
S'207.138.47.153'
p63
S'2012-10-04 09:13:44'
p64
F26352.700000000001
tp65
a(S'c4:3d:c7:b0:ae:78'
p66
S'4.71.254.153'
p67
S'207.138.47.153'
p68
S'2012-10-04 14:13:54'
p69
F26189.700000000001
tp70
a(S'c4:3d:c7:b0:ae:78'
p71
S'4.71.254.140'
p72
S'207.138.47.153'
p73
S'2012-10-04 16:34:20'
p74
F23718.099999999999
tp75
a(S'c4:3d:c7:b0:ae:78'
p76
S'4.71.254.140'
p77
S'207.138.47.153'
p78
S'2012-10-04 21:14:19'
p79
F12346.799999999999
tp80
a(S'c4:3d:c7:b0:ae:78'
p81
S'4.71.254.153'
p82
S'207.138.47.153'
p83
S'2012-10-05 02:14:35'
p84
F3583.73
tp85
a(S'c4:3d:c7:b0:ae:78'
p86
S'4.71.254.140'
p87
S'207.138.47.153'
p88
S'2012-10-05 07:14:35'
p89
F25333.799999999999
tp90
a(S'c4:3d:c7:b0:ae:78'
p91
S'4.71.254.140'
p92
S'207.138.47.153'
p93
S'2012-10-05 16:24:58'
p94
F28462.599999999999
tp95
a(S'c4:3d:c7:b0:ae:78'
p96
S'4.71.254.140'
p97
S'207.138.47.153'
p98
S'2012-10-05 18:44:04'
p99
F27475.900000000001
tp100
a(S'c4:3d:c7:b0:ae:78'
p101
S'4.71.254.153'
p102
S'207.138.47.153'
p103
S'2012-10-05 23:04:44'
p104
F24285.599999999999
tp105
a(S'c4:3d:c7:b0:ae:78'
p106
S'4.71.254.153'
p107
S'207.138.47.153'
p108
S'2012-10-06 03:23:58'
p109
F19639.0
tp110
a(S'c4:3d:c7:b0:ae:78'
p111
S'4.71.254.140'
p112
S'207.138.47.153'
p113
S'2012-10-06 07:44:36'
p114
F28116.700000000001
tp115
a(S'c4:3d:c7:b0:ae:78'
p116
S'4.71.254.153'
p117
S'207.138.47.153'
p118
S'2012-10-06 12:03:42'
p119
F25469.900000000001
tp120
a(S'c4:3d:c7:b0:ae:78'
p121
S'4.71.254.153'
p122
S'207.138.47.153'
p123
S'2012-10-06 16:23:38'
p124
F13055.700000000001
tp125
a(S'c4:3d:c7:b0:ae:78'
p126
S'4.71.254.140'
p127
S'207.138.47.153'
p128
S'2012-10-06 18:43:47'
p129
F25687.200000000001
tp130
a(S'c4:3d:c7:b0:ae:78'
p131
S'4.71.254.140'
p132
S'207.138.47.153'
p133
S'2012-10-06 23:03:06'
p134
F14692.5
tp135
a(S'c4:3d:c7:b0:ae:78'
p136
S'4.71.254.140'
p137
S'207.138.47.153'
p138
S'2012-10-07 03:23:07'
p139
F15302.9
tp140
a(S'c4:3d:c7:b0:ae:78'
p141
S'4.71.254.140'
p142
S'207.138.47.153'
p143
S'2012-10-07 17:43:05'
p144
F9340.6100000000006
tp145
a(S'c4:3d:c7:b0:ae:78'
p146
S'4.71.254.153'
p147
S'207.138.47.153'
p148
S'2012-10-07 22:13:09'
p149
F12049.0
tp150
a(S'c4:3d:c7:b0:ae:78'
p151
S'4.71.254.153'
p152
S'207.138.47.153'
p153
S'2012-10-08 00:33:13'
p154
F0.0
tp155
a(S'c4:3d:c7:b0:ae:78'
p156
S'4.71.254.140'
p157
S'207.138.47.153'
p158
S'2012-10-08 04:53:13'
p159
F16547.299999999999
tp160
a(S'c4:3d:c7:b0:ae:78'
p161
S'4.71.254.140'
p162
S'207.138.47.153'
p163
S'2012-10-08 09:13:14'
p164
F7411.7600000000002
tp165
a(S'c4:3d:c7:b0:ae:78'
p166
S'4.71.254.153'
p167
S'207.138.47.153'
p168
S'2012-10-08 13:33:25'
p169
F16338.1
tp170
a(S'c4:3d:c7:b0:ae:78'
p171
S'4.71.254.140'
p172
S'207.138.47.153'
p173
S'2012-10-08 17:53:04'
p174
F10193.0
tp175
a(S'c4:3d:c7:b0:ae:78'
p176
S'4.71.254.140'
p177
S'207.138.47.153'
p178
S'2012-10-08 22:13:09'
p179
F9624.3600000000006
tp180
a(S'c4:3d:c7:b0:ae:78'
p181
S'4.71.254.140'
p182
S'207.138.47.153'
p183
S'2012-10-09 00:33:25'
p184
F4162.7399999999998
tp185
a(S'c4:3d:c7:b0:ae:78'
p186
S'4.71.254.153'
p187
S'207.138.47.153'
p188
S'2012-10-09 04:53:09'
p189
F16090.299999999999
tp190
a(S'c4:3d:c7:b0:ae:78'
p191
S'4.71.254.140'
p192
S'207.138.47.153'
p193
S'2012-10-09 09:13:36'
p194
F16453.299999999999
tp195
a(S'c4:3d:c7:b0:ae:78'
p196
S'4.71.254.153'
p197
S'207.138.47.153'
p198
S'2012-10-09 13:33:29'
p199
F10208.9
tp200
a(S'c4:3d:c7:b0:ae:78'
p201
S'4.71.254.140'
p202
S'207.138.47.153'
p203
S'2012-10-09 17:53:15'
p204
F16359.4
tp205
a(S'c4:3d:c7:b0:ae:78'
p206
S'4.71.254.153'
p207
S'207.138.47.153'
p208
S'2012-10-09 22:13:17'
p209
F15997.5
tp210
a(S'c4:3d:c7:b0:ae:78'
p211
S'4.71.254.140'
p212
S'207.138.47.153'
p213
S'2012-10-10 00:33:15'
p214
F2536.75
tp215
a(S'c4:3d:c7:b0:ae:78'
p216
S'4.71.254.153'
p217
S'207.138.47.153'
p218
S'2012-10-10 04:53:57'
p219
F15669.799999999999
tp220
a(S'c4:3d:c7:b0:ae:78'
p221
S'4.71.254.140'
p222
S'207.138.47.153'
p223
S'2012-10-10 22:22:49'
p224
F16735.200000000001
tp225
a(S'c4:3d:c7:b0:ae:78'
p226
S'4.71.254.140'
p227
S'207.138.47.153'
p228
S'2012-10-11 02:41:10'
p229
F5560.8400000000001
tp230
a(S'c4:3d:c7:b0:ae:78'
p231
S'4.71.254.140'
p232
S'207.138.47.153'
p233
S'2012-10-11 07:01:17'
p234
F16560.299999999999
tp235
a(S'c4:3d:c7:b0:ae:78'
p236
S'4.71.254.140'
p237
S'207.138.47.153'
p238
S'2012-10-11 11:21:05'
p239
F16546.200000000001
tp240
a(S'c4:3d:c7:b0:ae:78'
p241
S'4.71.254.153'
p242
S'207.138.47.153'
p243
S'2012-10-11 15:41:04'
p244
F16151.5
tp245
a(S'c4:3d:c7:b0:ae:78'
p246
S'4.71.254.140'
p247
S'207.138.47.153'
p248
S'2012-10-11 18:01:01'
p249
F16637.700000000001
tp250
a(S'c4:3d:c7:b0:ae:78'
p251
S'4.71.254.140'
p252
S'207.138.47.153'
p253
S'2012-10-11 22:21:05'
p254
F10290.4
tp255
a(S'c4:3d:c7:b0:ae:78'
p256
S'4.71.254.153'
p257
S'207.138.47.153'
p258
S'2012-10-12 02:41:08'
p259
F11063.200000000001
tp260
a(S'c4:3d:c7:b0:ae:78'
p261
S'4.71.254.140'
p262
S'207.138.47.153'
p263
S'2012-10-12 07:01:25'
p264
F16647.400000000001
tp265
a(S'c4:3d:c7:b0:ae:78'
p266
S'4.71.254.153'
p267
S'207.138.47.153'
p268
S'2012-10-12 11:21:03'
p269
F16073.799999999999
tp270
a(S'c4:3d:c7:b0:ae:78'
p271
S'4.71.254.153'
p272
S'207.138.47.153'
p273
S'2012-10-12 15:41:20'
p274
F16318.0
tp275
a(S'c4:3d:c7:b0:ae:78'
p276
S'4.71.254.140'
p277
S'207.138.47.153'
p278
S'2012-10-12 18:01:06'
p279
F16611.700000000001
tp280
a(S'c4:3d:c7:b0:ae:78'
p281
S'4.71.254.153'
p282
S'207.138.47.153'
p283
S'2012-10-12 22:21:06'
p284
F16342.4
tp285
a(S'c4:3d:c7:b0:ae:78'
p286
S'4.71.254.153'
p287
S'207.138.47.153'
p288
S'2012-10-13 02:41:03'
p289
F12129.6
tp290
a(S'c4:3d:c7:b0:ae:78'
p291
S'4.71.254.153'
p292
S'207.138.47.153'
p293
S'2012-10-13 07:01:26'
p294
F16707.400000000001
tp295
a(S'c4:3d:c7:b0:ae:78'
p296
S'4.71.254.140'
p297
S'207.138.47.153'
p298
S'2012-10-13 11:21:07'
p299
F16830.700000000001
tp300
a(S'c4:3d:c7:b0:ae:78'
p301
S'4.71.254.140'
p302
S'207.138.47.153'
p303
S'2012-10-13 15:51:10'
p304
F11849.4
tp305
a(S'c4:3d:c7:b0:ae:78'
p306
S'4.71.254.153'
p307
S'207.138.47.153'
p308
S'2012-10-13 18:11:10'
p309
F15806.6
tp310
a(S'c4:3d:c7:b0:ae:78'
p311
S'4.71.254.153'
p312
S'207.138.47.153'
p313
S'2012-10-13 22:31:03'
p314
F15036.5
tp315
a(S'c4:3d:c7:b0:ae:78'
p316
S'4.71.254.140'
p317
S'207.138.47.153'
p318
S'2012-10-14 02:51:08'
p319
F16627.599999999999
tp320
a(S'c4:3d:c7:b0:ae:78'
p321
S'4.71.254.153'
p322
S'207.138.47.153'
p323
S'2012-10-14 07:11:30'
p324
F10286.4
tp325
a(S'c4:3d:c7:b0:ae:78'
p326
S'4.71.254.153'
p327
S'207.138.47.153'
p328
S'2012-10-14 11:31:17'
p329
F9406.9500000000007
tp330
a(S'c4:3d:c7:b0:ae:78'
p331
S'4.71.254.140'
p332
S'207.138.47.153'
p333
S'2012-10-14 15:51:13'
p334
F16594.599999999999
tp335
a(S'c4:3d:c7:b0:ae:78'
p336
S'4.71.254.153'
p337
S'207.138.47.153'
p338
S'2012-10-14 18:11:08'
p339
F16068.0
tp340
a(S'c4:3d:c7:b0:ae:78'
p341
S'4.71.254.140'
p342
S'207.138.47.153'
p343
S'2012-10-14 22:31:08'
p344
F14827.4
tp345
a.