(lp0
(S'c4:3d:c7:9d:e0:f7'
p1
S'4.71.254.153'
p2
S'184.77.62.196'
p3
S'2012-10-02 02:51:49'
p4
F0.0
tp5
a(S'c4:3d:c7:9d:e0:f7'
p6
S'4.71.254.153'
p7
S'184.77.62.196'
p8
S'2012-10-02 08:11:49'
p9
F12115.6
tp10
a(S'c4:3d:c7:9d:e0:f7'
p11
S'4.71.254.140'
p12
S'184.77.62.196'
p13
S'2012-10-02 12:32:11'
p14
F13148.6
tp15
a(S'c4:3d:c7:9d:e0:f7'
p16
S'4.71.254.140'
p17
S'184.77.62.196'
p18
S'2012-10-02 15:01:46'
p19
F11688.0
tp20
a(S'c4:3d:c7:9d:e0:f7'
p21
S'4.71.254.153'
p22
S'184.77.62.196'
p23
S'2012-10-03 03:01:57'
p24
F0.0
tp25
a(S'c4:3d:c7:9d:e0:f7'
p26
S'4.71.254.153'
p27
S'184.77.62.196'
p28
S'2012-10-03 05:27:06'
p29
F1705.3099999999999
tp30
a(S'c4:3d:c7:9d:e0:f7'
p31
S'4.71.254.140'
p32
S'184.77.62.196'
p33
S'2012-10-03 10:27:46'
p34
F10382.200000000001
tp35
a(S'c4:3d:c7:9d:e0:f7'
p36
S'4.71.254.153'
p37
S'184.77.62.196'
p38
S'2012-10-03 14:57:50'
p39
F11229.700000000001
tp40
a(S'c4:3d:c7:9d:e0:f7'
p41
S'4.71.254.140'
p42
S'184.77.62.196'
p43
S'2012-10-03 19:56:54'
p44
F11684.5
tp45
a(S'c4:3d:c7:9d:e0:f7'
p46
S'4.71.254.153'
p47
S'184.77.62.196'
p48
S'2012-10-04 00:17:01'
p49
F1733.3199999999999
tp50
a(S'c4:3d:c7:9d:e0:f7'
p51
S'4.71.254.153'
p52
S'184.77.62.196'
p53
S'2012-10-04 04:36:57'
p54
F9857.0
tp55
a(S'c4:3d:c7:9d:e0:f7'
p56
S'4.71.254.153'
p57
S'184.77.62.196'
p58
S'2012-10-04 06:57:00'
p59
F8633.1700000000001
tp60
a(S'c4:3d:c7:9d:e0:f7'
p61
S'4.71.254.140'
p62
S'184.77.62.196'
p63
S'2012-10-04 11:17:06'
p64
F8720.6700000000001
tp65
a(S'c4:3d:c7:9d:e0:f7'
p66
S'4.71.254.153'
p67
S'184.77.62.196'
p68
S'2012-10-04 15:36:51'
p69
F12263.200000000001
tp70
a(S'c4:3d:c7:9d:e0:f7'
p71
S'4.71.254.153'
p72
S'184.77.62.196'
p73
S'2012-10-04 19:57:05'
p74
F11693.0
tp75
a(S'c4:3d:c7:9d:e0:f7'
p76
S'4.71.254.140'
p77
S'184.77.62.196'
p78
S'2012-10-05 00:17:11'
p79
F368.54000000000002
tp80
a(S'c4:3d:c7:9d:e0:f7'
p81
S'4.71.254.153'
p82
S'184.77.62.196'
p83
S'2012-10-05 04:37:00'
p84
F8904.6499999999996
tp85
a(S'c4:3d:c7:9d:e0:f7'
p86
S'4.71.254.153'
p87
S'184.77.62.196'
p88
S'2012-10-05 06:56:58'
p89
F0.0
tp90
a(S'c4:3d:c7:9d:e0:f7'
p91
S'4.71.254.153'
p92
S'184.77.62.196'
p93
S'2012-10-05 11:17:23'
p94
F9098.9899999999998
tp95
a(S'c4:3d:c7:9d:e0:f7'
p96
S'4.71.254.153'
p97
S'184.77.62.196'
p98
S'2012-10-05 15:36:55'
p99
F11369.299999999999
tp100
a(S'c4:3d:c7:9d:e0:f7'
p101
S'4.71.254.153'
p102
S'184.77.62.196'
p103
S'2012-10-05 19:56:56'
p104
F11797.5
tp105
a(S'c4:3d:c7:9d:e0:f7'
p106
S'4.71.254.153'
p107
S'184.77.62.196'
p108
S'2012-10-06 00:17:03'
p109
F0.0
tp110
a(S'c4:3d:c7:9d:e0:f7'
p111
S'4.71.254.153'
p112
S'184.77.62.196'
p113
S'2012-10-06 04:37:05'
p114
F9649.3799999999992
tp115
a(S'c4:3d:c7:9d:e0:f7'
p116
S'4.71.254.140'
p117
S'184.77.62.196'
p118
S'2012-10-06 06:57:06'
p119
F0.0
tp120
a(S'c4:3d:c7:9d:e0:f7'
p121
S'4.71.254.153'
p122
S'184.77.62.196'
p123
S'2012-10-06 11:27:11'
p124
F8070.1899999999996
tp125
a(S'c4:3d:c7:9d:e0:f7'
p126
S'4.71.254.153'
p127
S'184.77.62.196'
p128
S'2012-10-06 16:06:54'
p129
F0.0
tp130
a(S'c4:3d:c7:9d:e0:f7'
p131
S'4.71.254.140'
p132
S'184.77.62.196'
p133
S'2012-10-06 20:47:33'
p134
F8932.0300000000007
tp135
a(S'c4:3d:c7:9d:e0:f7'
p136
S'4.71.254.140'
p137
S'184.77.62.196'
p138
S'2012-10-07 02:59:58'
p139
F0.0
tp140
a(S'c4:3d:c7:9d:e0:f7'
p141
S'4.71.254.153'
p142
S'184.77.62.196'
p143
S'2012-10-07 09:21:48'
p144
F0.0
tp145
a(S'c4:3d:c7:9d:e0:f7'
p146
S'4.71.254.153'
p147
S'184.77.62.196'
p148
S'2012-10-07 22:59:50'
p149
F1726.7
tp150
a(S'c4:3d:c7:9d:e0:f7'
p151
S'4.71.254.140'
p152
S'184.77.62.196'
p153
S'2012-10-08 03:19:50'
p154
F0.0
tp155
a(S'c4:3d:c7:9d:e0:f7'
p156
S'4.71.254.140'
p157
S'184.77.62.196'
p158
S'2012-10-08 07:39:58'
p159
F0.0
tp160
a(S'c4:3d:c7:9d:e0:f7'
p161
S'4.71.254.153'
p162
S'184.77.62.196'
p163
S'2012-10-08 10:00:06'
p164
F11068.799999999999
tp165
a(S'c4:3d:c7:9d:e0:f7'
p166
S'4.71.254.153'
p167
S'184.77.62.196'
p168
S'2012-10-08 14:20:03'
p169
F11876.9
tp170
a(S'c4:3d:c7:9d:e0:f7'
p171
S'4.71.254.153'
p172
S'184.77.62.196'
p173
S'2012-10-08 19:08:17'
p174
F0.0
tp175
a(S'c4:3d:c7:9d:e0:f7'
p176
S'4.71.254.153'
p177
S'184.77.62.196'
p178
S'2012-10-08 23:39:46'
p179
F9125.3099999999995
tp180
a(S'c4:3d:c7:9d:e0:f7'
p181
S'4.71.254.140'
p182
S'184.77.62.196'
p183
S'2012-10-09 04:19:02'
p184
F9633.1200000000008
tp185
a(S'c4:3d:c7:9d:e0:f7'
p186
S'4.71.254.140'
p187
S'184.77.62.196'
p188
S'2012-10-09 09:59:02'
p189
F10665.9
tp190
a(S'c4:3d:c7:9d:e0:f7'
p191
S'4.71.254.153'
p192
S'184.77.62.196'
p193
S'2012-10-09 16:38:59'
p194
F8665.9699999999993
tp195
a(S'c4:3d:c7:9d:e0:f7'
p196
S'4.71.254.153'
p197
S'184.77.62.196'
p198
S'2012-10-09 20:58:58'
p199
F8369.7700000000004
tp200
a(S'c4:3d:c7:9d:e0:f7'
p201
S'4.71.254.153'
p202
S'184.77.62.196'
p203
S'2012-10-10 01:19:22'
p204
F8888.8299999999999
tp205
a(S'c4:3d:c7:9d:e0:f7'
p206
S'4.71.254.140'
p207
S'184.77.62.196'
p208
S'2012-10-10 05:38:58'
p209
F11279.1
tp210
a(S'c4:3d:c7:9d:e0:f7'
p211
S'4.71.254.153'
p212
S'184.77.62.196'
p213
S'2012-10-11 04:23:16'
p214
F0.0
tp215
a(S'c4:3d:c7:9d:e0:f7'
p216
S'4.71.254.140'
p217
S'184.77.62.196'
p218
S'2012-10-11 08:42:55'
p219
F0.0
tp220
a(S'c4:3d:c7:9d:e0:f7'
p221
S'4.71.254.140'
p222
S'184.77.62.196'
p223
S'2012-10-11 13:03:07'
p224
F0.0
tp225
a(S'c4:3d:c7:9d:e0:f7'
p226
S'4.71.254.140'
p227
S'184.77.62.196'
p228
S'2012-10-11 17:22:51'
p229
F1732.5
tp230
a(S'c4:3d:c7:9d:e0:f7'
p231
S'4.71.254.153'
p232
S'184.77.62.196'
p233
S'2012-10-11 19:43:00'
p234
F1664.3699999999999
tp235
a(S'c4:3d:c7:9d:e0:f7'
p236
S'4.71.254.153'
p237
S'184.77.62.196'
p238
S'2012-10-12 00:02:53'
p239
F0.0
tp240
a(S'c4:3d:c7:9d:e0:f7'
p241
S'4.71.254.140'
p242
S'184.77.62.196'
p243
S'2012-10-12 04:23:02'
p244
F0.0
tp245
a(S'c4:3d:c7:9d:e0:f7'
p246
S'4.71.254.153'
p247
S'184.77.62.196'
p248
S'2012-10-12 08:42:58'
p249
F0.0
tp250
a(S'c4:3d:c7:9d:e0:f7'
p251
S'4.71.254.153'
p252
S'184.77.62.196'
p253
S'2012-10-12 13:03:04'
p254
F11549.200000000001
tp255
a(S'c4:3d:c7:9d:e0:f7'
p256
S'4.71.254.153'
p257
S'184.77.62.196'
p258
S'2012-10-12 17:22:56'
p259
F0.0
tp260
a(S'c4:3d:c7:9d:e0:f7'
p261
S'4.71.254.153'
p262
S'184.77.62.196'
p263
S'2012-10-12 19:42:59'
p264
F9433.75
tp265
a(S'c4:3d:c7:9d:e0:f7'
p266
S'4.71.254.153'
p267
S'184.77.62.196'
p268
S'2012-10-13 00:03:10'
p269
F15179.299999999999
tp270
a(S'c4:3d:c7:9d:e0:f7'
p271
S'4.71.254.153'
p272
S'184.77.62.196'
p273
S'2012-10-13 04:23:09'
p274
F11684.5
tp275
a(S'c4:3d:c7:9d:e0:f7'
p276
S'4.71.254.153'
p277
S'184.77.62.196'
p278
S'2012-10-13 08:12:16'
p279
F11999.6
tp280
a(S'c4:3d:c7:9d:e0:f7'
p281
S'4.71.254.153'
p282
S'184.77.62.196'
p283
S'2012-10-13 16:43:06'
p284
F0.0
tp285
a(S'c4:3d:c7:9d:e0:f7'
p286
S'4.71.254.153'
p287
S'184.77.62.196'
p288
S'2012-10-13 19:03:07'
p289
F1725.6700000000001
tp290
a(S'c4:3d:c7:9d:e0:f7'
p291
S'4.71.254.153'
p292
S'184.77.62.196'
p293
S'2012-10-13 23:12:07'
p294
F0.0
tp295
a(S'c4:3d:c7:9d:e0:f7'
p296
S'4.71.254.153'
p297
S'184.77.62.196'
p298
S'2012-10-14 03:22:52'
p299
F0.0
tp300
a(S'c4:3d:c7:9d:e0:f7'
p301
S'4.71.254.140'
p302
S'184.77.62.196'
p303
S'2012-10-14 08:01:49'
p304
F0.0
tp305
a(S'c4:3d:c7:9d:e0:f7'
p306
S'4.71.254.153'
p307
S'184.77.62.196'
p308
S'2012-10-14 12:42:03'
p309
F0.0
tp310
a(S'c4:3d:c7:9d:e0:f7'
p311
S'4.71.254.153'
p312
S'184.77.62.196'
p313
S'2012-10-14 17:12:11'
p314
F0.0
tp315
a(S'c4:3d:c7:9d:e0:f7'
p316
S'4.71.254.140'
p317
S'184.77.62.196'
p318
S'2012-10-14 19:32:06'
p319
F1743.2
tp320
a(S'c4:3d:c7:9d:e0:f7'
p321
S'4.71.254.153'
p322
S'184.77.62.196'
p323
S'2012-10-14 23:52:24'
p324
F1770.47
tp325
a.