(lp0
(S'c4:3d:c7:b0:ae:54'
p1
S'4.71.254.140'
p2
S'65.50.74.135'
p3
S'2012-10-02 03:48:36'
p4
F91716.199999999997
tp5
a(S'c4:3d:c7:b0:ae:54'
p6
S'4.71.254.153'
p7
S'65.50.74.135'
p8
S'2012-10-02 08:08:50'
p9
F94616.399999999994
tp10
a(S'c4:3d:c7:b0:ae:54'
p11
S'4.71.254.140'
p12
S'65.50.74.135'
p13
S'2012-10-02 12:28:36'
p14
F95314.800000000003
tp15
a(S'c4:3d:c7:b0:ae:54'
p16
S'4.71.254.153'
p17
S'65.50.74.135'
p18
S'2012-10-02 16:48:41'
p19
F95106.100000000006
tp20
a(S'c4:3d:c7:b0:ae:54'
p21
S'4.71.254.153'
p22
S'65.50.74.135'
p23
S'2012-10-02 19:08:37'
p24
F94690.399999999994
tp25
a(S'c4:3d:c7:b0:ae:54'
p26
S'4.71.254.153'
p27
S'65.50.74.135'
p28
S'2012-10-02 23:28:37'
p29
F94483.600000000006
tp30
a(S'c4:3d:c7:b0:ae:54'
p31
S'4.71.254.140'
p32
S'65.50.74.135'
p33
S'2012-10-03 03:48:37'
p34
F77582.5
tp35
a(S'c4:3d:c7:b0:ae:54'
p36
S'4.71.254.140'
p37
S'65.50.74.135'
p38
S'2012-10-03 08:08:50'
p39
F97783.100000000006
tp40
a(S'c4:3d:c7:b0:ae:54'
p41
S'4.71.254.153'
p42
S'65.50.74.135'
p43
S'2012-10-03 12:28:37'
p44
F95498.5
tp45
a(S'c4:3d:c7:b0:ae:54'
p46
S'4.71.254.140'
p47
S'65.50.74.135'
p48
S'2012-10-03 16:48:41'
p49
F26787.900000000001
tp50
a(S'c4:3d:c7:b0:ae:54'
p51
S'4.71.254.140'
p52
S'65.50.74.135'
p53
S'2012-10-03 19:08:38'
p54
F92707.699999999997
tp55
a(S'c4:3d:c7:b0:ae:54'
p56
S'4.71.254.153'
p57
S'65.50.74.135'
p58
S'2012-10-03 23:27:35'
p59
F57848.800000000003
tp60
a(S'c4:3d:c7:b0:ae:54'
p61
S'4.71.254.140'
p62
S'65.50.74.135'
p63
S'2012-10-04 03:47:35'
p64
F100945.0
tp65
a(S'c4:3d:c7:b0:ae:54'
p66
S'4.71.254.140'
p67
S'65.50.74.135'
p68
S'2012-10-04 08:07:55'
p69
F94418.100000000006
tp70
a(S'c4:3d:c7:b0:ae:54'
p71
S'4.71.254.140'
p72
S'65.50.74.135'
p73
S'2012-10-04 12:27:35'
p74
F100746.0
tp75
a(S'c4:3d:c7:b0:ae:54'
p76
S'4.71.254.153'
p77
S'65.50.74.135'
p78
S'2012-10-04 16:47:42'
p79
F94864.600000000006
tp80
a(S'c4:3d:c7:b0:ae:54'
p81
S'4.71.254.140'
p82
S'65.50.74.135'
p83
S'2012-10-04 19:07:40'
p84
F93150.800000000003
tp85
a(S'c4:3d:c7:b0:ae:54'
p86
S'4.71.254.153'
p87
S'65.50.74.135'
p88
S'2012-10-04 23:27:40'
p89
F86672.199999999997
tp90
a(S'c4:3d:c7:b0:ae:54'
p91
S'4.71.254.153'
p92
S'65.50.74.135'
p93
S'2012-10-05 03:47:41'
p94
F84242.300000000003
tp95
a(S'c4:3d:c7:b0:ae:54'
p96
S'4.71.254.140'
p97
S'65.50.74.135'
p98
S'2012-10-05 08:07:45'
p99
F92059.699999999997
tp100
a(S'c4:3d:c7:b0:ae:54'
p101
S'4.71.254.140'
p102
S'65.50.74.135'
p103
S'2012-10-05 12:27:40'
p104
F98837.800000000003
tp105
a(S'c4:3d:c7:b0:ae:54'
p106
S'4.71.254.140'
p107
S'65.50.74.135'
p108
S'2012-10-05 16:47:39'
p109
F95157.699999999997
tp110
a(S'c4:3d:c7:b0:ae:54'
p111
S'4.71.254.140'
p112
S'65.50.74.135'
p113
S'2012-10-05 19:07:41'
p114
F94845.100000000006
tp115
a(S'c4:3d:c7:b0:ae:54'
p116
S'4.71.254.140'
p117
S'65.50.74.135'
p118
S'2012-10-05 23:27:40'
p119
F95101.600000000006
tp120
a(S'c4:3d:c7:b0:ae:54'
p121
S'4.71.254.140'
p122
S'65.50.74.135'
p123
S'2012-10-06 03:47:41'
p124
F93707.0
tp125
a(S'c4:3d:c7:b0:ae:54'
p126
S'4.71.254.140'
p127
S'65.50.74.135'
p128
S'2012-10-06 08:47:56'
p129
F95336.399999999994
tp130
a(S'c4:3d:c7:b0:ae:54'
p131
S'4.71.254.153'
p132
S'65.50.74.135'
p133
S'2012-10-06 13:07:41'
p134
F94996.800000000003
tp135
a(S'c4:3d:c7:b0:ae:54'
p136
S'4.71.254.140'
p137
S'65.50.74.135'
p138
S'2012-10-06 17:27:40'
p139
F95023.199999999997
tp140
a(S'c4:3d:c7:b0:ae:54'
p141
S'4.71.254.153'
p142
S'65.50.74.135'
p143
S'2012-10-06 19:47:40'
p144
F92486.899999999994
tp145
a(S'c4:3d:c7:b0:ae:54'
p146
S'4.71.254.153'
p147
S'65.50.74.135'
p148
S'2012-10-07 00:07:40'
p149
F91904.600000000006
tp150
a(S'c4:3d:c7:b0:ae:54'
p151
S'4.71.254.140'
p152
S'65.50.74.135'
p153
S'2012-10-07 04:27:41'
p154
F73849.800000000003
tp155
a(S'c4:3d:c7:b0:ae:54'
p156
S'4.71.254.153'
p157
S'65.50.74.135'
p158
S'2012-10-07 10:49:50'
p159
F0.0
tp160
a(S'c4:3d:c7:b0:ae:54'
p161
S'4.71.254.153'
p162
S'65.50.74.135'
p163
S'2012-10-07 17:29:34'
p164
F0.0
tp165
a(S'c4:3d:c7:b0:ae:54'
p166
S'4.71.254.153'
p167
S'65.50.74.135'
p168
S'2012-10-07 22:07:41'
p169
F100125.0
tp170
a(S'c4:3d:c7:b0:ae:54'
p171
S'4.71.254.140'
p172
S'65.50.74.135'
p173
S'2012-10-08 00:27:40'
p174
F91487.0
tp175
a(S'c4:3d:c7:b0:ae:54'
p176
S'4.71.254.153'
p177
S'65.50.74.135'
p178
S'2012-10-08 04:47:41'
p179
F93333.199999999997
tp180
a(S'c4:3d:c7:b0:ae:54'
p181
S'4.71.254.140'
p182
S'65.50.74.135'
p183
S'2012-10-08 09:07:42'
p184
F94632.899999999994
tp185
a(S'c4:3d:c7:b0:ae:54'
p186
S'4.71.254.153'
p187
S'65.50.74.135'
p188
S'2012-10-08 13:27:55'
p189
F90839.899999999994
tp190
a(S'c4:3d:c7:b0:ae:54'
p191
S'4.71.254.140'
p192
S'65.50.74.135'
p193
S'2012-10-08 17:47:41'
p194
F94911.100000000006
tp195
a(S'c4:3d:c7:b0:ae:54'
p196
S'4.71.254.140'
p197
S'65.50.74.135'
p198
S'2012-10-08 22:07:40'
p199
F94997.699999999997
tp200
a(S'c4:3d:c7:b0:ae:54'
p201
S'4.71.254.140'
p202
S'65.50.74.135'
p203
S'2012-10-09 00:27:51'
p204
F118779.0
tp205
a(S'c4:3d:c7:b0:ae:54'
p206
S'4.71.254.140'
p207
S'65.50.74.135'
p208
S'2012-10-09 04:47:42'
p209
F93086.899999999994
tp210
a(S'c4:3d:c7:b0:ae:54'
p211
S'4.71.254.140'
p212
S'65.50.74.135'
p213
S'2012-10-09 09:07:42'
p214
F93309.600000000006
tp215
a(S'c4:3d:c7:b0:ae:54'
p216
S'4.71.254.153'
p217
S'65.50.74.135'
p218
S'2012-10-09 13:27:55'
p219
F94827.100000000006
tp220
a(S'c4:3d:c7:b0:ae:54'
p221
S'4.71.254.140'
p222
S'65.50.74.135'
p223
S'2012-10-09 17:47:41'
p224
F83951.199999999997
tp225
a(S'c4:3d:c7:b0:ae:54'
p226
S'4.71.254.140'
p227
S'65.50.74.135'
p228
S'2012-10-09 22:07:42'
p229
F95404.699999999997
tp230
a(S'c4:3d:c7:b0:ae:54'
p231
S'4.71.254.140'
p232
S'65.50.74.135'
p233
S'2012-10-10 00:27:40'
p234
F87330.199999999997
tp235
a(S'c4:3d:c7:b0:ae:54'
p236
S'4.71.254.140'
p237
S'65.50.74.135'
p238
S'2012-10-10 04:47:40'
p239
F83829.300000000003
tp240
a(S'c4:3d:c7:b0:ae:54'
p241
S'4.71.254.153'
p242
S'65.50.74.135'
p243
S'2012-10-10 23:12:29'
p244
F92841.5
tp245
a(S'c4:3d:c7:b0:ae:54'
p246
S'4.71.254.153'
p247
S'65.50.74.135'
p248
S'2012-10-11 03:32:56'
p249
F75276.800000000003
tp250
a(S'c4:3d:c7:b0:ae:54'
p251
S'4.71.254.153'
p252
S'65.50.74.135'
p253
S'2012-10-11 07:52:39'
p254
F94807.399999999994
tp255
a(S'c4:3d:c7:b0:ae:54'
p256
S'4.71.254.153'
p257
S'65.50.74.135'
p258
S'2012-10-11 12:12:41'
p259
F91277.0
tp260
a(S'c4:3d:c7:b0:ae:54'
p261
S'4.71.254.153'
p262
S'65.50.74.135'
p263
S'2012-10-11 14:32:43'
p264
F94867.399999999994
tp265
a(S'c4:3d:c7:b0:ae:54'
p266
S'4.71.254.140'
p267
S'65.50.74.135'
p268
S'2012-10-11 18:52:40'
p269
F94981.600000000006
tp270
a(S'c4:3d:c7:b0:ae:54'
p271
S'4.71.254.153'
p272
S'65.50.74.135'
p273
S'2012-10-11 23:12:42'
p274
F92639.800000000003
tp275
a(S'c4:3d:c7:b0:ae:54'
p276
S'4.71.254.153'
p277
S'65.50.74.135'
p278
S'2012-10-12 03:32:54'
p279
F89329.399999999994
tp280
a(S'c4:3d:c7:b0:ae:54'
p281
S'4.71.254.153'
p282
S'65.50.74.135'
p283
S'2012-10-12 07:52:41'
p284
F95031.699999999997
tp285
a(S'c4:3d:c7:b0:ae:54'
p286
S'4.71.254.153'
p287
S'65.50.74.135'
p288
S'2012-10-12 12:12:40'
p289
F95475.800000000003
tp290
a(S'c4:3d:c7:b0:ae:54'
p291
S'4.71.254.153'
p292
S'65.50.74.135'
p293
S'2012-10-12 14:32:52'
p294
F92086.699999999997
tp295
a(S'c4:3d:c7:b0:ae:54'
p296
S'4.71.254.153'
p297
S'65.50.74.135'
p298
S'2012-10-12 18:52:41'
p299
F94368.399999999994
tp300
a(S'c4:3d:c7:b0:ae:54'
p301
S'4.71.254.140'
p302
S'65.50.74.135'
p303
S'2012-10-12 23:12:29'
p304
F93848.0
tp305
a(S'c4:3d:c7:b0:ae:54'
p306
S'4.71.254.153'
p307
S'65.50.74.135'
p308
S'2012-10-13 03:32:45'
p309
F96763.699999999997
tp310
a(S'c4:3d:c7:b0:ae:54'
p311
S'4.71.254.153'
p312
S'65.50.74.135'
p313
S'2012-10-13 07:52:40'
p314
F94819.800000000003
tp315
a(S'c4:3d:c7:b0:ae:54'
p316
S'4.71.254.140'
p317
S'65.50.74.135'
p318
S'2012-10-13 14:51:40'
p319
F90519.800000000003
tp320
a(S'c4:3d:c7:b0:ae:54'
p321
S'4.71.254.153'
p322
S'65.50.74.135'
p323
S'2012-10-13 19:11:41'
p324
F86463.399999999994
tp325
a(S'c4:3d:c7:b0:ae:54'
p326
S'4.71.254.140'
p327
S'65.50.74.135'
p328
S'2012-10-13 23:31:41'
p329
F94053.100000000006
tp330
a(S'c4:3d:c7:b0:ae:54'
p331
S'4.71.254.140'
p332
S'65.50.74.135'
p333
S'2012-10-14 03:51:55'
p334
F93884.300000000003
tp335
a(S'c4:3d:c7:b0:ae:54'
p336
S'4.71.254.140'
p337
S'65.50.74.135'
p338
S'2012-10-14 08:11:40'
p339
F94210.600000000006
tp340
a(S'c4:3d:c7:b0:ae:54'
p341
S'4.71.254.140'
p342
S'65.50.74.135'
p343
S'2012-10-14 12:31:39'
p344
F94897.699999999997
tp345
a(S'c4:3d:c7:b0:ae:54'
p346
S'4.71.254.140'
p347
S'65.50.74.135'
p348
S'2012-10-14 14:51:50'
p349
F94803.0
tp350
a(S'c4:3d:c7:b0:ae:54'
p351
S'4.71.254.153'
p352
S'65.50.74.135'
p353
S'2012-10-14 19:11:41'
p354
F73030.199999999997
tp355
a(S'c4:3d:c7:b0:ae:54'
p356
S'4.71.254.140'
p357
S'65.50.74.135'
p358
S'2012-10-14 23:31:41'
p359
F94067.199999999997
tp360
a.