(lp0
(S'c4:3d:c7:b0:ae:78'
p1
S'207.138.47.153'
p2
S'4.71.254.140'
p3
S'2012-10-02 01:48:13'
p4
F1718.0
tp5
a(S'c4:3d:c7:b0:ae:78'
p6
S'207.138.47.153'
p7
S'4.71.254.153'
p8
S'2012-10-02 06:04:48'
p9
F2934.1999999999998
tp10
a(S'c4:3d:c7:b0:ae:78'
p11
S'207.138.47.153'
p12
S'4.71.254.153'
p13
S'2012-10-02 10:24:02'
p14
F2340.6799999999998
tp15
a(S'c4:3d:c7:b0:ae:78'
p16
S'207.138.47.153'
p17
S'4.71.254.140'
p18
S'2012-10-02 12:44:43'
p19
F2249.5100000000002
tp20
a(S'c4:3d:c7:b0:ae:78'
p21
S'207.138.47.153'
p22
S'4.71.254.140'
p23
S'2012-10-02 16:54:27'
p24
F2269.71
tp25
a(S'c4:3d:c7:b0:ae:78'
p26
S'207.138.47.153'
p27
S'4.71.254.140'
p28
S'2012-10-02 21:24:45'
p29
F2224.8699999999999
tp30
a(S'c4:3d:c7:b0:ae:78'
p31
S'207.138.47.153'
p32
S'4.71.254.153'
p33
S'2012-10-03 02:26:53'
p34
F2188.2800000000002
tp35
a(S'c4:3d:c7:b0:ae:78'
p36
S'207.138.47.153'
p37
S'4.71.254.140'
p38
S'2012-10-03 07:03:39'
p39
F2228.0900000000001
tp40
a(S'c4:3d:c7:b0:ae:78'
p41
S'207.138.47.153'
p42
S'4.71.254.140'
p43
S'2012-10-03 11:23:39'
p44
F2104.7800000000002
tp45
a(S'c4:3d:c7:b0:ae:78'
p46
S'207.138.47.153'
p47
S'4.71.254.140'
p48
S'2012-10-03 13:54:42'
p49
F2110.02
tp50
a(S'c4:3d:c7:b0:ae:78'
p51
S'207.138.47.153'
p52
S'4.71.254.153'
p53
S'2012-10-03 18:45:17'
p54
F2047.6199999999999
tp55
a(S'c4:3d:c7:b0:ae:78'
p56
S'207.138.47.153'
p57
S'4.71.254.153'
p58
S'2012-10-03 23:14:38'
p59
F2274.04
tp60
a(S'c4:3d:c7:b0:ae:78'
p61
S'207.138.47.153'
p62
S'4.71.254.153'
p63
S'2012-10-04 03:46:33'
p64
F2707.23
tp65
a(S'c4:3d:c7:b0:ae:78'
p66
S'207.138.47.153'
p67
S'4.71.254.140'
p68
S'2012-10-04 09:24:24'
p69
F2334.6199999999999
tp70
a(S'c4:3d:c7:b0:ae:78'
p71
S'207.138.47.153'
p72
S'4.71.254.140'
p73
S'2012-10-04 14:23:57'
p74
F2329.0599999999999
tp75
a(S'c4:3d:c7:b0:ae:78'
p76
S'207.138.47.153'
p77
S'4.71.254.153'
p78
S'2012-10-04 16:43:55'
p79
F2181.79
tp80
a(S'c4:3d:c7:b0:ae:78'
p81
S'207.138.47.153'
p82
S'4.71.254.140'
p83
S'2012-10-04 21:25:05'
p84
F2591.4200000000001
tp85
a(S'c4:3d:c7:b0:ae:78'
p86
S'207.138.47.153'
p87
S'4.71.254.140'
p88
S'2012-10-05 02:25:34'
p89
F1439.8199999999999
tp90
a(S'c4:3d:c7:b0:ae:78'
p91
S'207.138.47.153'
p92
S'4.71.254.153'
p93
S'2012-10-05 07:27:47'
p94
F2922.0
tp95
a(S'c4:3d:c7:b0:ae:78'
p96
S'207.138.47.153'
p97
S'4.71.254.153'
p98
S'2012-10-05 12:03:40'
p99
F2287.5
tp100
a(S'c4:3d:c7:b0:ae:78'
p101
S'207.138.47.153'
p102
S'4.71.254.153'
p103
S'2012-10-05 18:54:47'
p104
F2354.7199999999998
tp105
a(S'c4:3d:c7:b0:ae:78'
p106
S'207.138.47.153'
p107
S'4.71.254.140'
p108
S'2012-10-05 23:15:12'
p109
F2233.6199999999999
tp110
a(S'c4:3d:c7:b0:ae:78'
p111
S'207.138.47.153'
p112
S'4.71.254.140'
p113
S'2012-10-06 03:34:24'
p114
F2260.1500000000001
tp115
a(S'c4:3d:c7:b0:ae:78'
p116
S'207.138.47.153'
p117
S'4.71.254.140'
p118
S'2012-10-06 07:56:31'
p119
F2336.0500000000002
tp120
a(S'c4:3d:c7:b0:ae:78'
p121
S'207.138.47.153'
p122
S'4.71.254.140'
p123
S'2012-10-06 12:13:33'
p124
F2285.8699999999999
tp125
a(S'c4:3d:c7:b0:ae:78'
p126
S'207.138.47.153'
p127
S'4.71.254.140'
p128
S'2012-10-06 16:34:00'
p129
F2871.0700000000002
tp130
a(S'c4:3d:c7:b0:ae:78'
p131
S'207.138.47.153'
p132
S'4.71.254.153'
p133
S'2012-10-06 18:54:45'
p134
F2253.1300000000001
tp135
a(S'c4:3d:c7:b0:ae:78'
p136
S'207.138.47.153'
p137
S'4.71.254.140'
p138
S'2012-10-06 23:13:00'
p139
F1027.3399999999999
tp140
a(S'c4:3d:c7:b0:ae:78'
p141
S'207.138.47.153'
p142
S'4.71.254.153'
p143
S'2012-10-07 03:33:17'
p144
F1043.22
tp145
a(S'c4:3d:c7:b0:ae:78'
p146
S'207.138.47.153'
p147
S'4.71.254.140'
p148
S'2012-10-07 11:55:42'
p149
F1487.3399999999999
tp150
a(S'c4:3d:c7:b0:ae:78'
p151
S'207.138.47.153'
p152
S'4.71.254.140'
p153
S'2012-10-07 17:53:07'
p154
F1519.4300000000001
tp155
a(S'c4:3d:c7:b0:ae:78'
p156
S'207.138.47.153'
p157
S'4.71.254.153'
p158
S'2012-10-07 22:23:08'
p159
F1513.5
tp160
a(S'c4:3d:c7:b0:ae:78'
p161
S'207.138.47.153'
p162
S'4.71.254.140'
p163
S'2012-10-08 00:43:23'
p164
F1328.6400000000001
tp165
a(S'c4:3d:c7:b0:ae:78'
p166
S'207.138.47.153'
p167
S'4.71.254.153'
p168
S'2012-10-08 05:03:12'
p169
F1518.0
tp170
a(S'c4:3d:c7:b0:ae:78'
p171
S'207.138.47.153'
p172
S'4.71.254.140'
p173
S'2012-10-08 09:24:29'
p174
F1433.9400000000001
tp175
a(S'c4:3d:c7:b0:ae:78'
p176
S'207.138.47.153'
p177
S'4.71.254.153'
p178
S'2012-10-08 13:45:43'
p179
F1069.9000000000001
tp180
a(S'c4:3d:c7:b0:ae:78'
p181
S'207.138.47.153'
p182
S'4.71.254.140'
p183
S'2012-10-08 18:03:08'
p184
F1517.46
tp185
a(S'c4:3d:c7:b0:ae:78'
p186
S'207.138.47.153'
p187
S'4.71.254.153'
p188
S'2012-10-08 22:23:07'
p189
F1427.3900000000001
tp190
a(S'c4:3d:c7:b0:ae:78'
p191
S'207.138.47.153'
p192
S'4.71.254.140'
p193
S'2012-10-09 00:43:27'
p194
F1464.51
tp195
a(S'c4:3d:c7:b0:ae:78'
p196
S'207.138.47.153'
p197
S'4.71.254.140'
p198
S'2012-10-09 05:03:28'
p199
F1404.28
tp200
a(S'c4:3d:c7:b0:ae:78'
p201
S'207.138.47.153'
p202
S'4.71.254.153'
p203
S'2012-10-09 09:23:49'
p204
F1369.3699999999999
tp205
a(S'c4:3d:c7:b0:ae:78'
p206
S'207.138.47.153'
p207
S'4.71.254.153'
p208
S'2012-10-09 13:46:04'
p209
F1509.5899999999999
tp210
a(S'c4:3d:c7:b0:ae:78'
p211
S'207.138.47.153'
p212
S'4.71.254.153'
p213
S'2012-10-09 18:03:08'
p214
F1499.54
tp215
a(S'c4:3d:c7:b0:ae:78'
p216
S'207.138.47.153'
p217
S'4.71.254.140'
p218
S'2012-10-09 22:23:16'
p219
F1509.6700000000001
tp220
a(S'c4:3d:c7:b0:ae:78'
p221
S'207.138.47.153'
p222
S'4.71.254.153'
p223
S'2012-10-10 00:43:27'
p224
F1500.55
tp225
a(S'c4:3d:c7:b0:ae:78'
p226
S'207.138.47.153'
p227
S'4.71.254.153'
p228
S'2012-10-10 05:03:51'
p229
F1490.9300000000001
tp230
a(S'c4:3d:c7:b0:ae:78'
p231
S'207.138.47.153'
p232
S'4.71.254.140'
p233
S'2012-10-10 22:31:08'
p234
F1449.8599999999999
tp235
a(S'c4:3d:c7:b0:ae:78'
p236
S'207.138.47.153'
p237
S'4.71.254.140'
p238
S'2012-10-11 02:51:14'
p239
F1452.78
tp240
a(S'c4:3d:c7:b0:ae:78'
p241
S'207.138.47.153'
p242
S'4.71.254.140'
p243
S'2012-10-11 07:13:44'
p244
F1512.48
tp245
a(S'c4:3d:c7:b0:ae:78'
p246
S'207.138.47.153'
p247
S'4.71.254.153'
p248
S'2012-10-11 11:31:08'
p249
F1494.97
tp250
a(S'c4:3d:c7:b0:ae:78'
p251
S'207.138.47.153'
p252
S'4.71.254.140'
p253
S'2012-10-11 15:51:07'
p254
F1493.3
tp255
a(S'c4:3d:c7:b0:ae:78'
p256
S'207.138.47.153'
p257
S'4.71.254.140'
p258
S'2012-10-11 18:11:25'
p259
F1547.47
tp260
a(S'c4:3d:c7:b0:ae:78'
p261
S'207.138.47.153'
p262
S'4.71.254.140'
p263
S'2012-10-11 22:31:04'
p264
F1523.79
tp265
a(S'c4:3d:c7:b0:ae:78'
p266
S'207.138.47.153'
p267
S'4.71.254.153'
p268
S'2012-10-12 02:51:17'
p269
F1485.5699999999999
tp270
a(S'c4:3d:c7:b0:ae:78'
p271
S'207.138.47.153'
p272
S'4.71.254.140'
p273
S'2012-10-12 11:31:07'
p274
F1342.6099999999999
tp275
a(S'c4:3d:c7:b0:ae:78'
p276
S'207.138.47.153'
p277
S'4.71.254.140'
p278
S'2012-10-12 15:51:12'
p279
F1508.3
tp280
a(S'c4:3d:c7:b0:ae:78'
p281
S'207.138.47.153'
p282
S'4.71.254.140'
p283
S'2012-10-12 22:31:08'
p284
F1492.6700000000001
tp285
a(S'c4:3d:c7:b0:ae:78'
p286
S'207.138.47.153'
p287
S'4.71.254.153'
p288
S'2012-10-13 02:51:12'
p289
F1537.0
tp290
a(S'c4:3d:c7:b0:ae:78'
p291
S'207.138.47.153'
p292
S'4.71.254.153'
p293
S'2012-10-13 07:11:12'
p294
F1499.5999999999999
tp295
a(S'c4:3d:c7:b0:ae:78'
p296
S'207.138.47.153'
p297
S'4.71.254.140'
p298
S'2012-10-13 11:31:17'
p299
F1443.28
tp300
a(S'c4:3d:c7:b0:ae:78'
p301
S'207.138.47.153'
p302
S'4.71.254.140'
p303
S'2012-10-13 16:01:07'
p304
F1519.52
tp305
a(S'c4:3d:c7:b0:ae:78'
p306
S'207.138.47.153'
p307
S'4.71.254.140'
p308
S'2012-10-13 18:21:18'
p309
F1557.8399999999999
tp310
a(S'c4:3d:c7:b0:ae:78'
p311
S'207.138.47.153'
p312
S'4.71.254.153'
p313
S'2012-10-13 22:41:11'
p314
F1538.6500000000001
tp315
a(S'c4:3d:c7:b0:ae:78'
p316
S'207.138.47.153'
p317
S'4.71.254.153'
p318
S'2012-10-14 03:01:13'
p319
F1610.5899999999999
tp320
a(S'c4:3d:c7:b0:ae:78'
p321
S'207.138.47.153'
p322
S'4.71.254.140'
p323
S'2012-10-14 07:23:41'
p324
F1510.27
tp325
a(S'c4:3d:c7:b0:ae:78'
p326
S'207.138.47.153'
p327
S'4.71.254.153'
p328
S'2012-10-14 11:41:15'
p329
F1526.05
tp330
a(S'c4:3d:c7:b0:ae:78'
p331
S'207.138.47.153'
p332
S'4.71.254.153'
p333
S'2012-10-14 16:01:12'
p334
F1498.99
tp335
a(S'c4:3d:c7:b0:ae:78'
p336
S'207.138.47.153'
p337
S'4.71.254.153'
p338
S'2012-10-14 18:21:21'
p339
F1518.4200000000001
tp340
a(S'c4:3d:c7:b0:ae:78'
p341
S'207.138.47.153'
p342
S'4.71.254.153'
p343
S'2012-10-14 22:41:06'
p344
F1057.8
tp345
a.