(lp0
(S'c4:3d:c7:b0:ae:54'
p1
S'65.50.74.135'
p2
S'4.71.254.153'
p3
S'2012-10-02 03:58:41'
p4
F44767.900000000001
tp5
a(S'c4:3d:c7:b0:ae:54'
p6
S'65.50.74.135'
p7
S'4.71.254.153'
p8
S'2012-10-02 08:18:40'
p9
F81872.199999999997
tp10
a(S'c4:3d:c7:b0:ae:54'
p11
S'65.50.74.135'
p12
S'4.71.254.153'
p13
S'2012-10-02 12:38:37'
p14
F82394.899999999994
tp15
a(S'c4:3d:c7:b0:ae:54'
p16
S'65.50.74.135'
p17
S'4.71.254.153'
p18
S'2012-10-02 16:58:49'
p19
F83035.699999999997
tp20
a(S'c4:3d:c7:b0:ae:54'
p21
S'65.50.74.135'
p22
S'4.71.254.153'
p23
S'2012-10-02 19:18:49'
p24
F75350.600000000006
tp25
a(S'c4:3d:c7:b0:ae:54'
p26
S'65.50.74.135'
p27
S'4.71.254.140'
p28
S'2012-10-02 23:38:36'
p29
F85717.800000000003
tp30
a(S'c4:3d:c7:b0:ae:54'
p31
S'65.50.74.135'
p32
S'4.71.254.140'
p33
S'2012-10-03 03:58:37'
p34
F77909.899999999994
tp35
a(S'c4:3d:c7:b0:ae:54'
p36
S'65.50.74.135'
p37
S'4.71.254.140'
p38
S'2012-10-03 08:18:39'
p39
F95278.199999999997
tp40
a(S'c4:3d:c7:b0:ae:54'
p41
S'65.50.74.135'
p42
S'4.71.254.140'
p43
S'2012-10-03 12:38:37'
p44
F95845.899999999994
tp45
a(S'c4:3d:c7:b0:ae:54'
p46
S'65.50.74.135'
p47
S'4.71.254.140'
p48
S'2012-10-03 16:58:39'
p49
F86753.800000000003
tp50
a(S'c4:3d:c7:b0:ae:54'
p51
S'65.50.74.135'
p52
S'4.71.254.140'
p53
S'2012-10-03 23:37:36'
p54
F83506.699999999997
tp55
a(S'c4:3d:c7:b0:ae:54'
p56
S'65.50.74.135'
p57
S'4.71.254.140'
p58
S'2012-10-04 03:57:40'
p59
F77793.600000000006
tp60
a(S'c4:3d:c7:b0:ae:54'
p61
S'65.50.74.135'
p62
S'4.71.254.153'
p63
S'2012-10-04 08:17:39'
p64
F92678.5
tp65
a(S'c4:3d:c7:b0:ae:54'
p66
S'65.50.74.135'
p67
S'4.71.254.140'
p68
S'2012-10-04 12:37:40'
p69
F92932.300000000003
tp70
a(S'c4:3d:c7:b0:ae:54'
p71
S'65.50.74.135'
p72
S'4.71.254.140'
p73
S'2012-10-04 16:57:41'
p74
F75982.5
tp75
a(S'c4:3d:c7:b0:ae:54'
p76
S'65.50.74.135'
p77
S'4.71.254.140'
p78
S'2012-10-04 19:17:57'
p79
F79386.399999999994
tp80
a(S'c4:3d:c7:b0:ae:54'
p81
S'65.50.74.135'
p82
S'4.71.254.140'
p83
S'2012-10-04 23:37:40'
p84
F70017.699999999997
tp85
a(S'c4:3d:c7:b0:ae:54'
p86
S'65.50.74.135'
p87
S'4.71.254.153'
p88
S'2012-10-05 03:57:42'
p89
F44115.300000000003
tp90
a(S'c4:3d:c7:b0:ae:54'
p91
S'65.50.74.135'
p92
S'4.71.254.153'
p93
S'2012-10-05 08:17:40'
p94
F87393.899999999994
tp95
a(S'c4:3d:c7:b0:ae:54'
p96
S'65.50.74.135'
p97
S'4.71.254.140'
p98
S'2012-10-05 12:37:41'
p99
F90690.800000000003
tp100
a(S'c4:3d:c7:b0:ae:54'
p101
S'65.50.74.135'
p102
S'4.71.254.140'
p103
S'2012-10-05 16:57:42'
p104
F77455.5
tp105
a(S'c4:3d:c7:b0:ae:54'
p106
S'65.50.74.135'
p107
S'4.71.254.153'
p108
S'2012-10-05 19:17:53'
p109
F78086.100000000006
tp110
a(S'c4:3d:c7:b0:ae:54'
p111
S'65.50.74.135'
p112
S'4.71.254.140'
p113
S'2012-10-05 23:37:42'
p114
F56828.900000000001
tp115
a(S'c4:3d:c7:b0:ae:54'
p116
S'65.50.74.135'
p117
S'4.71.254.153'
p118
S'2012-10-06 03:57:46'
p119
F81882.0
tp120
a(S'c4:3d:c7:b0:ae:54'
p121
S'65.50.74.135'
p122
S'4.71.254.140'
p123
S'2012-10-06 08:57:40'
p124
F90359.899999999994
tp125
a(S'c4:3d:c7:b0:ae:54'
p126
S'65.50.74.135'
p127
S'4.71.254.140'
p128
S'2012-10-06 13:17:41'
p129
F86548.399999999994
tp130
a(S'c4:3d:c7:b0:ae:54'
p131
S'65.50.74.135'
p132
S'4.71.254.140'
p133
S'2012-10-06 17:37:41'
p134
F65276.300000000003
tp135
a(S'c4:3d:c7:b0:ae:54'
p136
S'65.50.74.135'
p137
S'4.71.254.140'
p138
S'2012-10-06 19:57:54'
p139
F58566.800000000003
tp140
a(S'c4:3d:c7:b0:ae:54'
p141
S'65.50.74.135'
p142
S'4.71.254.140'
p143
S'2012-10-07 00:17:43'
p144
F53523.199999999997
tp145
a(S'c4:3d:c7:b0:ae:54'
p146
S'65.50.74.135'
p147
S'4.71.254.140'
p148
S'2012-10-07 04:37:41'
p149
F76488.899999999994
tp150
a(S'c4:3d:c7:b0:ae:54'
p151
S'65.50.74.135'
p152
S'4.71.254.153'
p153
S'2012-10-07 10:59:34'
p154
F0.0
tp155
a(S'c4:3d:c7:b0:ae:54'
p156
S'65.50.74.135'
p157
S'4.71.254.140'
p158
S'2012-10-07 17:37:43'
p159
F73082.300000000003
tp160
a(S'c4:3d:c7:b0:ae:54'
p161
S'65.50.74.135'
p162
S'4.71.254.140'
p163
S'2012-10-07 22:17:41'
p164
F86805.300000000003
tp165
a(S'c4:3d:c7:b0:ae:54'
p166
S'65.50.74.135'
p167
S'4.71.254.153'
p168
S'2012-10-08 00:37:52'
p169
F60760.800000000003
tp170
a(S'c4:3d:c7:b0:ae:54'
p171
S'65.50.74.135'
p172
S'4.71.254.153'
p173
S'2012-10-08 04:57:41'
p174
F57342.300000000003
tp175
a(S'c4:3d:c7:b0:ae:54'
p176
S'65.50.74.135'
p177
S'4.71.254.140'
p178
S'2012-10-08 09:17:42'
p179
F84387.5
tp180
a(S'c4:3d:c7:b0:ae:54'
p181
S'65.50.74.135'
p182
S'4.71.254.153'
p183
S'2012-10-08 13:37:38'
p184
F91682.300000000003
tp185
a(S'c4:3d:c7:b0:ae:54'
p186
S'65.50.74.135'
p187
S'4.71.254.140'
p188
S'2012-10-08 17:57:42'
p189
F92740.0
tp190
a(S'c4:3d:c7:b0:ae:54'
p191
S'65.50.74.135'
p192
S'4.71.254.153'
p193
S'2012-10-08 22:17:41'
p194
F78085.5
tp195
a(S'c4:3d:c7:b0:ae:54'
p196
S'65.50.74.135'
p197
S'4.71.254.140'
p198
S'2012-10-09 00:37:53'
p199
F71192.399999999994
tp200
a(S'c4:3d:c7:b0:ae:54'
p201
S'65.50.74.135'
p202
S'4.71.254.153'
p203
S'2012-10-09 04:57:42'
p204
F60758.800000000003
tp205
a(S'c4:3d:c7:b0:ae:54'
p206
S'65.50.74.135'
p207
S'4.71.254.153'
p208
S'2012-10-09 09:17:44'
p209
F87600.600000000006
tp210
a(S'c4:3d:c7:b0:ae:54'
p211
S'65.50.74.135'
p212
S'4.71.254.140'
p213
S'2012-10-09 13:37:38'
p214
F93208.0
tp215
a(S'c4:3d:c7:b0:ae:54'
p216
S'65.50.74.135'
p217
S'4.71.254.140'
p218
S'2012-10-09 17:57:41'
p219
F76399.800000000003
tp220
a(S'c4:3d:c7:b0:ae:54'
p221
S'65.50.74.135'
p222
S'4.71.254.140'
p223
S'2012-10-09 22:17:40'
p224
F79779.300000000003
tp225
a(S'c4:3d:c7:b0:ae:54'
p226
S'65.50.74.135'
p227
S'4.71.254.140'
p228
S'2012-10-10 00:37:54'
p229
F80810.0
tp230
a(S'c4:3d:c7:b0:ae:54'
p231
S'65.50.74.135'
p232
S'4.71.254.140'
p233
S'2012-10-10 04:57:40'
p234
F70145.300000000003
tp235
a(S'c4:3d:c7:b0:ae:54'
p236
S'65.50.74.135'
p237
S'4.71.254.140'
p238
S'2012-10-11 03:42:50'
p239
F49476.099999999999
tp240
a(S'c4:3d:c7:b0:ae:54'
p241
S'65.50.74.135'
p242
S'4.71.254.153'
p243
S'2012-10-11 08:02:40'
p244
F87755.899999999994
tp245
a(S'c4:3d:c7:b0:ae:54'
p246
S'65.50.74.135'
p247
S'4.71.254.140'
p248
S'2012-10-11 12:22:40'
p249
F81892.100000000006
tp250
a(S'c4:3d:c7:b0:ae:54'
p251
S'65.50.74.135'
p252
S'4.71.254.153'
p253
S'2012-10-11 14:42:53'
p254
F76819.800000000003
tp255
a(S'c4:3d:c7:b0:ae:54'
p256
S'65.50.74.135'
p257
S'4.71.254.153'
p258
S'2012-10-11 19:02:46'
p259
F82969.199999999997
tp260
a(S'c4:3d:c7:b0:ae:54'
p261
S'65.50.74.135'
p262
S'4.71.254.153'
p263
S'2012-10-11 23:22:41'
p264
F85026.300000000003
tp265
a(S'c4:3d:c7:b0:ae:54'
p266
S'65.50.74.135'
p267
S'4.71.254.140'
p268
S'2012-10-12 03:42:39'
p269
F83565.100000000006
tp270
a(S'c4:3d:c7:b0:ae:54'
p271
S'65.50.74.135'
p272
S'4.71.254.140'
p273
S'2012-10-12 08:02:41'
p274
F95351.300000000003
tp275
a(S'c4:3d:c7:b0:ae:54'
p276
S'65.50.74.135'
p277
S'4.71.254.140'
p278
S'2012-10-12 12:22:39'
p279
F82653.699999999997
tp280
a(S'c4:3d:c7:b0:ae:54'
p281
S'65.50.74.135'
p282
S'4.71.254.153'
p283
S'2012-10-12 14:42:53'
p284
F88773.100000000006
tp285
a(S'c4:3d:c7:b0:ae:54'
p286
S'65.50.74.135'
p287
S'4.71.254.140'
p288
S'2012-10-12 23:22:41'
p289
F72000.899999999994
tp290
a(S'c4:3d:c7:b0:ae:54'
p291
S'65.50.74.135'
p292
S'4.71.254.153'
p293
S'2012-10-13 03:42:38'
p294
F69050.199999999997
tp295
a(S'c4:3d:c7:b0:ae:54'
p296
S'65.50.74.135'
p297
S'4.71.254.140'
p298
S'2012-10-13 08:02:39'
p299
F72165.899999999994
tp300
a(S'c4:3d:c7:b0:ae:54'
p301
S'65.50.74.135'
p302
S'4.71.254.153'
p303
S'2012-10-13 15:01:54'
p304
F75606.800000000003
tp305
a(S'c4:3d:c7:b0:ae:54'
p306
S'65.50.74.135'
p307
S'4.71.254.140'
p308
S'2012-10-13 19:21:41'
p309
F73799.399999999994
tp310
a(S'c4:3d:c7:b0:ae:54'
p311
S'65.50.74.135'
p312
S'4.71.254.153'
p313
S'2012-10-13 23:41:42'
p314
F77746.699999999997
tp315
a(S'c4:3d:c7:b0:ae:54'
p316
S'65.50.74.135'
p317
S'4.71.254.153'
p318
S'2012-10-14 04:01:42'
p319
F83775.0
tp320
a(S'c4:3d:c7:b0:ae:54'
p321
S'65.50.74.135'
p322
S'4.71.254.140'
p323
S'2012-10-14 08:21:41'
p324
F85794.199999999997
tp325
a(S'c4:3d:c7:b0:ae:54'
p326
S'65.50.74.135'
p327
S'4.71.254.153'
p328
S'2012-10-14 12:41:39'
p329
F83708.199999999997
tp330
a(S'c4:3d:c7:b0:ae:54'
p331
S'65.50.74.135'
p332
S'4.71.254.153'
p333
S'2012-10-14 15:01:53'
p334
F79895.0
tp335
a(S'c4:3d:c7:b0:ae:54'
p336
S'65.50.74.135'
p337
S'4.71.254.140'
p338
S'2012-10-14 19:21:54'
p339
F64010.599999999999
tp340
a(S'c4:3d:c7:b0:ae:54'
p341
S'65.50.74.135'
p342
S'4.71.254.140'
p343
S'2012-10-14 23:41:40'
p344
F77160.600000000006
tp345
a.