(lp0
(S'c4:3d:c7:8e:e0:81'
p1
S'64.9.225.183'
p2
S'108.203.55.66'
p3
S'2012-10-02 02:48:29'
p4
F0.0
tp5
a(S'c4:3d:c7:8e:e0:81'
p6
S'64.9.225.170'
p7
S'108.203.55.66'
p8
S'2012-10-02 08:48:33'
p9
F0.0
tp10
a(S'c4:3d:c7:8e:e0:81'
p11
S'64.9.225.161'
p12
S'108.203.55.66'
p13
S'2012-10-02 13:28:20'
p14
F0.0
tp15
a(S'c4:3d:c7:8e:e0:81'
p16
S'64.9.225.140'
p17
S'108.203.55.66'
p18
S'2012-10-02 17:47:26'
p19
F0.0
tp20
a(S'c4:3d:c7:8e:e0:81'
p21
S'64.9.225.183'
p22
S'108.203.55.66'
p23
S'2012-10-02 22:07:02'
p24
F0.0
tp25
a(S'c4:3d:c7:8e:e0:81'
p26
S'64.9.225.183'
p27
S'108.203.55.66'
p28
S'2012-10-03 00:27:07'
p29
F0.0
tp30
a(S'c4:3d:c7:8e:e0:81'
p31
S'64.9.225.183'
p32
S'108.203.55.66'
p33
S'2012-10-03 04:47:20'
p34
F0.0
tp35
a(S'c4:3d:c7:8e:e0:81'
p36
S'64.9.225.140'
p37
S'108.203.55.66'
p38
S'2012-10-03 09:07:31'
p39
F6252.2200000000003
tp40
a(S'c4:3d:c7:8e:e0:81'
p41
S'64.9.225.140'
p42
S'108.203.55.66'
p43
S'2012-10-03 13:28:14'
p44
F6364.29
tp45
a(S'c4:3d:c7:8e:e0:81'
p46
S'64.9.225.170'
p47
S'108.203.55.66'
p48
S'2012-10-03 17:47:32'
p49
F6318.1899999999996
tp50
a(S'c4:3d:c7:8e:e0:81'
p51
S'64.9.225.140'
p52
S'108.203.55.66'
p53
S'2012-10-04 00:27:43'
p54
F6389.71
tp55
a(S'c4:3d:c7:8e:e0:81'
p56
S'64.9.225.140'
p57
S'108.203.55.66'
p58
S'2012-10-04 04:48:05'
p59
F1337.7
tp60
a(S'c4:3d:c7:8e:e0:81'
p61
S'64.9.225.161'
p62
S'108.203.55.66'
p63
S'2012-10-04 09:07:50'
p64
F4657.6999999999998
tp65
a(S'c4:3d:c7:8e:e0:81'
p66
S'64.9.225.161'
p67
S'108.203.55.66'
p68
S'2012-10-04 13:28:16'
p69
F6044.46
tp70
a(S'c4:3d:c7:8e:e0:81'
p71
S'64.9.225.140'
p72
S'108.203.55.66'
p73
S'2012-10-04 17:47:28'
p74
F6233.2600000000002
tp75
a(S'c4:3d:c7:8e:e0:81'
p76
S'64.9.225.170'
p77
S'108.203.55.66'
p78
S'2012-10-04 22:07:28'
p79
F6211.46
tp80
a(S'c4:3d:c7:8e:e0:81'
p81
S'64.9.225.140'
p82
S'108.203.55.66'
p83
S'2012-10-05 00:27:31'
p84
F6006.6400000000003
tp85
a(S'c4:3d:c7:8e:e0:81'
p86
S'64.9.225.170'
p87
S'108.203.55.66'
p88
S'2012-10-05 04:47:36'
p89
F5407.1700000000001
tp90
a(S'c4:3d:c7:8e:e0:81'
p91
S'64.9.225.161'
p92
S'108.203.55.66'
p93
S'2012-10-05 09:07:30'
p94
F6467.6199999999999
tp95
a(S'c4:3d:c7:8e:e0:81'
p96
S'64.9.225.140'
p97
S'108.203.55.66'
p98
S'2012-10-05 13:28:39'
p99
F6295.5
tp100
a(S'c4:3d:c7:8e:e0:81'
p101
S'64.9.225.161'
p102
S'108.203.55.66'
p103
S'2012-10-05 17:47:48'
p104
F6220.3500000000004
tp105
a(S'c4:3d:c7:8e:e0:81'
p106
S'64.9.225.140'
p107
S'108.203.55.66'
p108
S'2012-10-05 22:07:38'
p109
F6014.7399999999998
tp110
a(S'c4:3d:c7:8e:e0:81'
p111
S'64.9.225.170'
p112
S'108.203.55.66'
p113
S'2012-10-06 00:27:32'
p114
F6361.9899999999998
tp115
a(S'c4:3d:c7:8e:e0:81'
p116
S'64.9.225.183'
p117
S'108.203.55.66'
p118
S'2012-10-06 04:46:28'
p119
F0.0
tp120
a(S'c4:3d:c7:8e:e0:81'
p121
S'64.9.225.161'
p122
S'108.203.55.66'
p123
S'2012-10-06 09:07:39'
p124
F6322.6700000000001
tp125
a(S'c4:3d:c7:8e:e0:81'
p126
S'64.9.225.161'
p127
S'108.203.55.66'
p128
S'2012-10-06 13:27:31'
p129
F6364.6999999999998
tp130
a(S'c4:3d:c7:8e:e0:81'
p131
S'64.9.225.140'
p132
S'108.203.55.66'
p133
S'2012-10-06 17:47:35'
p134
F6491.1099999999997
tp135
a(S'c4:3d:c7:8e:e0:81'
p136
S'64.9.225.183'
p137
S'108.203.55.66'
p138
S'2012-10-06 22:07:07'
p139
F0.0
tp140
a(S'c4:3d:c7:8e:e0:81'
p141
S'64.9.225.161'
p142
S'108.203.55.66'
p143
S'2012-10-07 00:46:43'
p144
F6538.8400000000001
tp145
a(S'c4:3d:c7:8e:e0:81'
p146
S'64.9.225.140'
p147
S'108.203.55.66'
p148
S'2012-10-07 06:06:43'
p149
F6137.3800000000001
tp150
a(S'c4:3d:c7:8e:e0:81'
p151
S'64.9.225.170'
p152
S'108.203.55.66'
p153
S'2012-10-07 11:26:42'
p154
F6323.4899999999998
tp155
a(S'c4:3d:c7:8e:e0:81'
p156
S'64.9.225.183'
p157
S'108.203.55.66'
p158
S'2012-10-07 16:47:49'
p159
F0.0
tp160
a(S'c4:3d:c7:8e:e0:81'
p161
S'64.9.225.170'
p162
S'108.203.55.66'
p163
S'2012-10-07 21:36:52'
p164
F6203.5699999999997
tp165
a(S'c4:3d:c7:8e:e0:81'
p166
S'64.9.225.140'
p167
S'108.203.55.66'
p168
S'2012-10-08 01:56:30'
p169
F6378.75
tp170
a(S'c4:3d:c7:8e:e0:81'
p171
S'64.9.225.183'
p172
S'108.203.55.66'
p173
S'2012-10-08 04:16:28'
p174
F0.0
tp175
a(S'c4:3d:c7:8e:e0:81'
p176
S'64.9.225.140'
p177
S'108.203.55.66'
p178
S'2012-10-08 08:36:43'
p179
F6429.0200000000004
tp180
a(S'c4:3d:c7:8e:e0:81'
p181
S'64.9.225.170'
p182
S'108.203.55.66'
p183
S'2012-10-08 12:56:52'
p184
F6261.3800000000001
tp185
a(S'c4:3d:c7:8e:e0:81'
p186
S'64.9.225.170'
p187
S'108.203.55.66'
p188
S'2012-10-08 17:17:25'
p189
F6475.3000000000002
tp190
a(S'c4:3d:c7:8e:e0:81'
p191
S'64.9.225.140'
p192
S'108.203.55.66'
p193
S'2012-10-08 21:36:34'
p194
F6687.6700000000001
tp195
a(S'c4:3d:c7:8e:e0:81'
p196
S'64.9.225.170'
p197
S'108.203.55.66'
p198
S'2012-10-09 01:56:52'
p199
F6409.1499999999996
tp200
a(S'c4:3d:c7:8e:e0:81'
p201
S'64.9.225.140'
p202
S'108.203.55.66'
p203
S'2012-10-09 04:16:34'
p204
F5116.3800000000001
tp205
a(S'c4:3d:c7:8e:e0:81'
p206
S'64.9.225.161'
p207
S'108.203.55.66'
p208
S'2012-10-09 08:36:36'
p209
F6250.9499999999998
tp210
a(S'c4:3d:c7:8e:e0:81'
p211
S'64.9.225.183'
p212
S'108.203.55.66'
p213
S'2012-10-09 12:56:03'
p214
F0.0
tp215
a(S'c4:3d:c7:8e:e0:81'
p216
S'64.9.225.170'
p217
S'108.203.55.66'
p218
S'2012-10-09 17:17:13'
p219
F6343.6300000000001
tp220
a(S'c4:3d:c7:8e:e0:81'
p221
S'64.9.225.183'
p222
S'108.203.55.66'
p223
S'2012-10-09 21:36:04'
p224
F0.0
tp225
a(S'c4:3d:c7:8e:e0:81'
p226
S'64.9.225.170'
p227
S'108.203.55.66'
p228
S'2012-10-10 01:56:32'
p229
F6338.3299999999999
tp230
a(S'c4:3d:c7:8e:e0:81'
p231
S'64.9.225.161'
p232
S'108.203.55.66'
p233
S'2012-10-10 04:16:53'
p234
F6226.7600000000002
tp235
a(S'c4:3d:c7:8e:e0:81'
p236
S'64.9.225.140'
p237
S'108.203.55.66'
p238
S'2012-10-10 12:56:42'
p239
F6147.7399999999998
tp240
a(S'c4:3d:c7:8e:e0:81'
p241
S'64.9.225.161'
p242
S'108.203.55.66'
p243
S'2012-10-10 08:36:53'
p244
F6184.7600000000002
tp245
a(S'c4:3d:c7:8e:e0:81'
p246
S'64.9.225.140'
p247
S'108.203.55.66'
p248
S'2012-10-10 21:36:32'
p249
F6340.3500000000004
tp250
a(S'c4:3d:c7:8e:e0:81'
p251
S'64.9.225.183'
p252
S'108.203.55.66'
p253
S'2012-10-11 04:56:17'
p254
F0.0
tp255
a(S'c4:3d:c7:8e:e0:81'
p256
S'64.9.225.170'
p257
S'108.203.55.66'
p258
S'2012-10-11 10:06:27'
p259
F6247.4700000000003
tp260
a(S'c4:3d:c7:8e:e0:81'
p261
S'64.9.225.161'
p262
S'108.203.55.66'
p263
S'2012-10-11 15:46:41'
p264
F6339.3800000000001
tp265
a(S'c4:3d:c7:8e:e0:81'
p266
S'64.9.225.170'
p267
S'108.203.55.66'
p268
S'2012-10-11 20:37:12'
p269
F6389.7299999999996
tp270
a(S'c4:3d:c7:8e:e0:81'
p271
S'64.9.225.140'
p272
S'108.203.55.66'
p273
S'2012-10-12 01:46:41'
p274
F6304.2200000000003
tp275
a(S'c4:3d:c7:8e:e0:81'
p276
S'64.9.225.140'
p277
S'108.203.55.66'
p278
S'2012-10-12 10:56:26'
p279
F6285.4399999999996
tp280
a(S'c4:3d:c7:8e:e0:81'
p281
S'64.9.225.161'
p282
S'108.203.55.66'
p283
S'2012-10-12 18:16:22'
p284
F6311.2299999999996
tp285
a(S'c4:3d:c7:8e:e0:81'
p286
S'64.9.225.161'
p287
S'108.203.55.66'
p288
S'2012-10-13 00:45:44'
p289
F6318.71
tp290
a(S'c4:3d:c7:8e:e0:81'
p291
S'64.9.225.183'
p292
S'108.203.55.66'
p293
S'2012-10-13 05:36:03'
p294
F0.0
tp295
a(S'c4:3d:c7:8e:e0:81'
p296
S'64.9.225.161'
p297
S'108.203.55.66'
p298
S'2012-10-13 09:55:27'
p299
F6375.3000000000002
tp300
a(S'c4:3d:c7:8e:e0:81'
p301
S'64.9.225.140'
p302
S'108.203.55.66'
p303
S'2012-10-13 14:15:42'
p304
F6318.4300000000003
tp305
a(S'c4:3d:c7:8e:e0:81'
p306
S'64.9.225.183'
p307
S'108.203.55.66'
p308
S'2012-10-13 16:35:06'
p309
F0.0
tp310
a(S'c4:3d:c7:8e:e0:81'
p311
S'64.9.225.140'
p312
S'108.203.55.66'
p313
S'2012-10-13 20:55:33'
p314
F6422.6300000000001
tp315
a(S'c4:3d:c7:8e:e0:81'
p316
S'64.9.225.161'
p317
S'108.203.55.66'
p318
S'2012-10-14 01:15:40'
p319
F6346.9799999999996
tp320
a(S'c4:3d:c7:8e:e0:81'
p321
S'64.9.225.140'
p322
S'108.203.55.66'
p323
S'2012-10-14 05:36:17'
p324
F6207.1300000000001
tp325
a(S'c4:3d:c7:8e:e0:81'
p326
S'64.9.225.161'
p327
S'108.203.55.66'
p328
S'2012-10-14 09:55:41'
p329
F6311.2399999999998
tp330
a(S'c4:3d:c7:8e:e0:81'
p331
S'64.9.225.161'
p332
S'108.203.55.66'
p333
S'2012-10-14 14:15:33'
p334
F6250.3199999999997
tp335
a(S'c4:3d:c7:8e:e0:81'
p336
S'64.9.225.170'
p337
S'108.203.55.66'
p338
S'2012-10-14 16:35:43'
p339
F6466.9300000000003
tp340
a(S'c4:3d:c7:8e:e0:81'
p341
S'64.9.225.170'
p342
S'108.203.55.66'
p343
S'2012-10-14 20:55:32'
p344
F6053.5100000000002
tp345
a.