(lp0
(S'c4:3d:c7:a3:ed:ec'
p1
S'76.88.123.65'
p2
S'38.98.51.38'
p3
S'2012-10-02 03:27:43'
p4
F5517.5100000000002
tp5
a(S'c4:3d:c7:a3:ed:ec'
p6
S'76.88.123.65'
p7
S'38.98.51.38'
p8
S'2012-10-02 07:47:44'
p9
F5028.2799999999997
tp10
a(S'c4:3d:c7:a3:ed:ec'
p11
S'76.88.123.65'
p12
S'38.98.51.38'
p13
S'2012-10-02 12:07:44'
p14
F5305.3999999999996
tp15
a(S'c4:3d:c7:a3:ed:ec'
p16
S'76.88.123.65'
p17
S'38.98.51.38'
p18
S'2012-10-02 14:27:56'
p19
F5011.54
tp20
a(S'c4:3d:c7:a3:ed:ec'
p21
S'76.88.123.65'
p22
S'38.98.51.38'
p23
S'2012-10-02 22:21:57'
p24
F5033.9099999999999
tp25
a(S'c4:3d:c7:a3:ed:ec'
p26
S'76.88.123.65'
p27
S'38.98.51.38'
p28
S'2012-10-03 02:41:43'
p29
F4969.0100000000002
tp30
a(S'c4:3d:c7:a3:ed:ec'
p31
S'76.88.123.65'
p32
S'38.98.51.38'
p33
S'2012-10-03 07:02:45'
p34
F5012.6599999999999
tp35
a(S'c4:3d:c7:a3:ed:ec'
p36
S'76.88.123.65'
p37
S'38.98.51.38'
p38
S'2012-10-03 11:21:41'
p39
F5016.3000000000002
tp40
a(S'c4:3d:c7:a3:ed:ec'
p41
S'76.88.123.65'
p42
S'38.98.51.38'
p43
S'2012-10-03 15:30:44'
p44
F4951.46
tp45
a(S'c4:3d:c7:a3:ed:ec'
p46
S'76.88.123.65'
p47
S'38.98.51.38'
p48
S'2012-10-03 19:50:44'
p49
F5210.0
tp50
a(S'c4:3d:c7:a3:ed:ec'
p51
S'76.88.123.65'
p52
S'38.98.51.38'
p53
S'2012-10-03 22:10:57'
p54
F4982.6599999999999
tp55
a(S'c4:3d:c7:a3:ed:ec'
p56
S'76.88.123.65'
p57
S'38.98.51.38'
p58
S'2012-10-04 02:30:45'
p59
F5001.4099999999999
tp60
a(S'c4:3d:c7:a3:ed:ec'
p61
S'76.88.123.65'
p62
S'38.98.51.38'
p63
S'2012-10-04 07:50:44'
p64
F5085.6199999999999
tp65
a(S'c4:3d:c7:a3:ed:ec'
p66
S'76.88.123.65'
p67
S'38.98.51.38'
p68
S'2012-10-04 12:10:42'
p69
F5001.2700000000004
tp70
a(S'c4:3d:c7:a3:ed:ec'
p71
S'76.88.123.65'
p72
S'38.98.51.38'
p73
S'2012-10-04 16:30:42'
p74
F5003.2399999999998
tp75
a(S'c4:3d:c7:a3:ed:ec'
p76
S'76.88.123.65'
p77
S'38.98.51.38'
p78
S'2012-10-04 20:50:44'
p79
F4987.0
tp80
a(S'c4:3d:c7:a3:ed:ec'
p81
S'76.88.123.65'
p82
S'38.98.51.38'
p83
S'2012-10-04 23:10:57'
p84
F4997.1899999999996
tp85
a(S'c4:3d:c7:a3:ed:ec'
p86
S'76.88.123.65'
p87
S'38.98.51.38'
p88
S'2012-10-05 03:30:59'
p89
F8576.3999999999996
tp90
a(S'c4:3d:c7:a3:ed:ec'
p91
S'76.88.123.65'
p92
S'38.98.51.38'
p93
S'2012-10-05 07:51:06'
p94
F9996.2299999999996
tp95
a(S'c4:3d:c7:a3:ed:ec'
p96
S'76.88.123.65'
p97
S'38.98.51.38'
p98
S'2012-10-05 12:10:53'
p99
F8399.3899999999994
tp100
a(S'c4:3d:c7:a3:ed:ec'
p101
S'76.88.123.65'
p102
S'38.98.51.38'
p103
S'2012-10-05 16:31:25'
p104
F7664.2700000000004
tp105
a(S'c4:3d:c7:a3:ed:ec'
p106
S'76.88.123.65'
p107
S'38.98.51.38'
p108
S'2012-10-05 20:50:56'
p109
F8563.4400000000005
tp110
a(S'c4:3d:c7:a3:ed:ec'
p111
S'76.88.123.65'
p112
S'38.98.51.38'
p113
S'2012-10-06 01:21:58'
p114
F5212.4200000000001
tp115
a(S'c4:3d:c7:a3:ed:ec'
p116
S'76.88.123.65'
p117
S'38.98.51.38'
p118
S'2012-10-06 05:30:00'
p119
F5027.2399999999998
tp120
a(S'c4:3d:c7:a3:ed:ec'
p121
S'76.88.123.65'
p122
S'38.98.51.38'
p123
S'2012-10-06 09:49:44'
p124
F5008.29
tp125
a(S'c4:3d:c7:a3:ed:ec'
p126
S'76.88.123.65'
p127
S'38.98.51.38'
p128
S'2012-10-06 14:10:06'
p129
F8173.9799999999996
tp130
a(S'c4:3d:c7:a3:ed:ec'
p131
S'76.88.123.65'
p132
S'38.98.51.38'
p133
S'2012-10-06 18:29:53'
p134
F7901.2700000000004
tp135
a(S'c4:3d:c7:a3:ed:ec'
p136
S'76.88.123.65'
p137
S'38.98.51.38'
p138
S'2012-10-06 22:49:42'
p139
F5060.4700000000003
tp140
a(S'c4:3d:c7:a3:ed:ec'
p141
S'76.88.123.65'
p142
S'38.98.51.38'
p143
S'2012-10-07 03:09:45'
p144
F5223.7700000000004
tp145
a(S'c4:3d:c7:a3:ed:ec'
p146
S'76.88.123.65'
p147
S'38.98.51.38'
p148
S'2012-10-07 07:06:00'
p149
F5492.4200000000001
tp150
a(S'c4:3d:c7:a3:ed:ec'
p151
S'76.88.123.65'
p152
S'38.98.51.38'
p153
S'2012-10-07 11:25:43'
p154
F5194.8599999999997
tp155
a(S'c4:3d:c7:a3:ed:ec'
p156
S'76.88.123.65'
p157
S'38.98.51.38'
p158
S'2012-10-07 15:45:52'
p159
F5254.4899999999998
tp160
a(S'c4:3d:c7:a3:ed:ec'
p161
S'76.88.123.65'
p162
S'38.98.51.38'
p163
S'2012-10-07 20:05:41'
p164
F5013.8699999999999
tp165
a(S'c4:3d:c7:a3:ed:ec'
p166
S'76.88.123.65'
p167
S'38.98.51.38'
p168
S'2012-10-08 00:25:54'
p169
F8573.2199999999993
tp170
a(S'c4:3d:c7:a3:ed:ec'
p171
S'76.88.123.65'
p172
S'38.98.51.38'
p173
S'2012-10-08 04:45:47'
p174
F5069.96
tp175
a(S'c4:3d:c7:a3:ed:ec'
p176
S'76.88.123.65'
p177
S'38.98.51.38'
p178
S'2012-10-08 07:06:03'
p179
F5005.9700000000003
tp180
a(S'c4:3d:c7:a3:ed:ec'
p181
S'76.88.123.65'
p182
S'38.98.51.38'
p183
S'2012-10-08 11:25:46'
p184
F5012.9499999999998
tp185
a(S'c4:3d:c7:a3:ed:ec'
p186
S'76.88.123.65'
p187
S'38.98.51.38'
p188
S'2012-10-08 15:45:49'
p189
F5102.9200000000001
tp190
a(S'c4:3d:c7:a3:ed:ec'
p191
S'76.88.123.65'
p192
S'38.98.51.38'
p193
S'2012-10-08 20:05:41'
p194
F5027.9799999999996
tp195
a(S'c4:3d:c7:a3:ed:ec'
p196
S'76.88.123.65'
p197
S'38.98.51.38'
p198
S'2012-10-09 00:25:46'
p199
F5173.8500000000004
tp200
a(S'c4:3d:c7:a3:ed:ec'
p201
S'76.88.123.65'
p202
S'38.98.51.38'
p203
S'2012-10-09 04:45:42'
p204
F5066.1300000000001
tp205
a(S'c4:3d:c7:a3:ed:ec'
p206
S'76.88.123.65'
p207
S'38.98.51.38'
p208
S'2012-10-09 07:05:56'
p209
F5246.1700000000001
tp210
a(S'c4:3d:c7:a3:ed:ec'
p211
S'76.88.123.65'
p212
S'38.98.51.38'
p213
S'2012-10-09 11:25:44'
p214
F5057.1300000000001
tp215
a(S'c4:3d:c7:a3:ed:ec'
p216
S'76.88.123.65'
p217
S'38.98.51.38'
p218
S'2012-10-09 15:45:49'
p219
F5254.8400000000001
tp220
a(S'c4:3d:c7:a3:ed:ec'
p221
S'76.88.123.65'
p222
S'38.98.51.38'
p223
S'2012-10-09 20:05:41'
p224
F5019.0500000000002
tp225
a(S'c4:3d:c7:a3:ed:ec'
p226
S'76.88.123.65'
p227
S'38.98.51.38'
p228
S'2012-10-10 00:25:46'
p229
F5043.4499999999998
tp230
a(S'c4:3d:c7:a3:ed:ec'
p231
S'76.88.123.65'
p232
S'38.98.51.38'
p233
S'2012-10-10 04:45:46'
p234
F5212.3900000000003
tp235
a(S'c4:3d:c7:a3:ed:ec'
p236
S'76.88.123.65'
p237
S'38.98.51.38'
p238
S'2012-10-10 07:05:58'
p239
F5253.5600000000004
tp240
a(S'c4:3d:c7:a3:ed:ec'
p241
S'76.88.123.65'
p242
S'38.98.51.38'
p243
S'2012-10-11 00:01:45'
p244
F4986.7399999999998
tp245
a(S'c4:3d:c7:a3:ed:ec'
p246
S'76.88.123.65'
p247
S'38.98.51.38'
p248
S'2012-10-11 02:50:56'
p249
F5577.6199999999999
tp250
a(S'c4:3d:c7:a3:ed:ec'
p251
S'76.88.123.65'
p252
S'38.98.51.38'
p253
S'2012-10-11 07:08:55'
p254
F8198.8700000000008
tp255
a(S'c4:3d:c7:a3:ed:ec'
p256
S'76.88.123.65'
p257
S'38.98.51.38'
p258
S'2012-10-11 11:28:46'
p259
F5319.3299999999999
tp260
a(S'c4:3d:c7:a3:ed:ec'
p261
S'76.88.123.65'
p262
S'38.98.51.38'
p263
S'2012-10-11 23:21:58'
p264
F5276.1700000000001
tp265
a(S'c4:3d:c7:a3:ed:ec'
p266
S'76.88.123.65'
p267
S'38.98.51.38'
p268
S'2012-10-12 03:41:45'
p269
F5282.2399999999998
tp270
a(S'c4:3d:c7:a3:ed:ec'
p271
S'76.88.123.65'
p272
S'38.98.51.38'
p273
S'2012-10-12 08:01:45'
p274
F5037.8900000000003
tp275
a(S'c4:3d:c7:a3:ed:ec'
p276
S'76.88.123.65'
p277
S'38.98.51.38'
p278
S'2012-10-12 12:21:42'
p279
F5027.4200000000001
tp280
a(S'c4:3d:c7:a3:ed:ec'
p281
S'76.88.123.65'
p282
S'38.98.51.38'
p283
S'2012-10-12 16:41:44'
p284
F5254.3800000000001
tp285
a(S'c4:3d:c7:a3:ed:ec'
p286
S'76.88.123.65'
p287
S'38.98.51.38'
p288
S'2012-10-12 21:02:06'
p289
F11571.299999999999
tp290
a(S'c4:3d:c7:a3:ed:ec'
p291
S'76.88.123.65'
p292
S'38.98.51.38'
p293
S'2012-10-12 23:22:00'
p294
F5209.3699999999999
tp295
a(S'c4:3d:c7:a3:ed:ec'
p296
S'76.88.123.65'
p297
S'38.98.51.38'
p298
S'2012-10-13 05:39:58'
p299
F5166.2700000000004
tp300
a(S'c4:3d:c7:a3:ed:ec'
p301
S'76.88.123.65'
p302
S'38.98.51.38'
p303
S'2012-10-13 09:59:45'
p304
F5203.79
tp305
a(S'c4:3d:c7:a3:ed:ec'
p306
S'76.88.123.65'
p307
S'38.98.51.38'
p308
S'2012-10-13 14:20:36'
p309
F5210.04
tp310
a(S'c4:3d:c7:a3:ed:ec'
p311
S'76.88.123.65'
p312
S'38.98.51.38'
p313
S'2012-10-13 18:39:46'
p314
F5222.6999999999998
tp315
a(S'c4:3d:c7:a3:ed:ec'
p316
S'76.88.123.65'
p317
S'38.98.51.38'
p318
S'2012-10-13 22:59:44'
p319
F5003.9300000000003
tp320
a(S'c4:3d:c7:a3:ed:ec'
p321
S'76.88.123.65'
p322
S'38.98.51.38'
p323
S'2012-10-14 03:19:42'
p324
F5027.1400000000003
tp325
a(S'c4:3d:c7:a3:ed:ec'
p326
S'76.88.123.65'
p327
S'38.98.51.38'
p328
S'2012-10-14 05:39:56'
p329
F5032.3999999999996
tp330
a(S'c4:3d:c7:a3:ed:ec'
p331
S'76.88.123.65'
p332
S'38.98.51.38'
p333
S'2012-10-14 09:59:42'
p334
F5024.1000000000004
tp335
a(S'c4:3d:c7:a3:ed:ec'
p336
S'76.88.123.65'
p337
S'38.98.51.38'
p338
S'2012-10-14 14:19:55'
p339
F8181.1499999999996
tp340
a(S'c4:3d:c7:a3:ed:ec'
p341
S'76.88.123.65'
p342
S'38.98.51.38'
p343
S'2012-10-14 18:39:51'
p344
F8343.2999999999993
tp345
a(S'c4:3d:c7:a3:ed:ec'
p346
S'76.88.123.65'
p347
S'38.98.51.38'
p348
S'2012-10-14 22:59:45'
p349
F5249.5100000000002
tp350
a.